---
triple:          'arm64-apple-darwin'
binary-path:     '/Users/manpreetajmani/Desktop/Test/test/test'
relocations:
  - { offsetInCU: 0x9752, offset: 0x9752, size: 0x8, addend: 0x0, symName: __ZNSt3__124__put_character_sequenceB8ne180100IcNS_11char_traitsIcEEEERNS_13basic_ostreamIT_T0_EES7_PKS4_m, symObjAddr: 0x7D9C, symBinAddr: 0x10000A380, symSize: 0x1F4 }
  - { offsetInCU: 0x101DE, offset: 0x101DE, size: 0x8, addend: 0x0, symName: __ZNSt3__17getlineB8ne180100IcNS_11char_traitsIcEENS_9allocatorIcEEEERNS_13basic_istreamIT_T0_EES9_RNS_12basic_stringIS6_S7_T1_EE, symObjAddr: 0x1414, symBinAddr: 0x1000039F8, symSize: 0x5C }
  - { offsetInCU: 0x105B2, offset: 0x105B2, size: 0x8, addend: 0x0, symName: __ZNSt3__1rsB8ne180100IcNS_11char_traitsIcEENS_9allocatorIcEEEERNS_13basic_istreamIT_T0_EES9_RNS_12basic_stringIS6_S7_T1_EE, symObjAddr: 0x15F0, symBinAddr: 0x100003BD4, symSize: 0x324 }
  - { offsetInCU: 0x10863, offset: 0x10863, size: 0x8, addend: 0x0, symName: __ZNSt3__17getlineB8ne180100IcNS_11char_traitsIcEENS_9allocatorIcEEEERNS_13basic_istreamIT_T0_EES9_RNS_12basic_stringIS6_S7_T1_EES6_, symObjAddr: 0x1C14, symBinAddr: 0x1000041F8, symSize: 0x234 }
  - { offsetInCU: 0x10921, offset: 0x10921, size: 0x8, addend: 0x0, symName: __ZNSt3__1lsB8ne180100IcNS_11char_traitsIcEENS_9allocatorIcEEEERNS_13basic_ostreamIT_T0_EES9_RKNS_12basic_stringIS6_S7_T1_EE, symObjAddr: 0x1E48, symBinAddr: 0x10000442C, symSize: 0x4C }
  - { offsetInCU: 0x10979, offset: 0x10979, size: 0x8, addend: 0x0, symName: __ZNSt3__14endlB8ne180100IcNS_11char_traitsIcEEEERNS_13basic_ostreamIT_T0_EES7_, symObjAddr: 0x1EC0, symBinAddr: 0x1000044A4, symSize: 0x58 }
  - { offsetInCU: 0x109B9, offset: 0x109B9, size: 0x8, addend: 0x0, symName: __ZNSt3__1lsB8ne180100INS_11char_traitsIcEEEERNS_13basic_ostreamIcT_EES6_PKc, symObjAddr: 0x200C, symBinAddr: 0x1000045F0, symSize: 0x48 }
  - { offsetInCU: 0x10A0A, offset: 0x10A0A, size: 0x8, addend: 0x0, symName: __ZNSt3__1neB8ne180100ERKNS_14__map_iteratorINS_15__tree_iteratorINS_12__value_typeINS_4pairIiNS_12basic_stringIcNS_11char_traitsIcEENS_9allocatorIcEEEEEES9_EEPNS_11__tree_nodeISB_PvEElEEEESJ_, symObjAddr: 0x21D0, symBinAddr: 0x1000047B4, symSize: 0x30 }
  - { offsetInCU: 0x10BB2, offset: 0x10BB2, size: 0x8, addend: 0x0, symName: __ZNSt3__1neB8ne180100ERKNS_14__map_iteratorINS_15__tree_iteratorINS_12__value_typeINS_12basic_stringIcNS_11char_traitsIcEENS_9allocatorIcEEEEiEEPNS_11__tree_nodeIS9_PvEElEEEESH_, symObjAddr: 0x25F4, symBinAddr: 0x100004BD8, symSize: 0x30 }
  - { offsetInCU: 0x10BEF, offset: 0x10BEF, size: 0x8, addend: 0x0, symName: __ZNSt3__1neB8ne180100ERKNS_14__map_iteratorINS_15__tree_iteratorINS_12__value_typeINS_4pairIiNS_12basic_stringIcNS_11char_traitsIcEENS_9allocatorIcEEEEEEiEEPNS_11__tree_nodeISB_PvEElEEEESJ_, symObjAddr: 0x26E8, symBinAddr: 0x100004CCC, symSize: 0x30 }
  - { offsetInCU: 0x10C42, offset: 0x10C42, size: 0x8, addend: 0x0, symName: __ZNSt3__130__libcpp_is_constant_evaluatedB8ne180100Ev, symObjAddr: 0x3148, symBinAddr: 0x10000572C, symSize: 0xC }
  - { offsetInCU: 0x10CC5, offset: 0x10CC5, size: 0x8, addend: 0x0, symName: __ZNSt3__112__destroy_atB8ne180100INS_4pairIKiNS_12basic_stringIcNS_11char_traitsIcEENS_9allocatorIcEEEEEELi0EEEvPT_, symObjAddr: 0x389C, symBinAddr: 0x100005E80, symSize: 0x24 }
  - { offsetInCU: 0x10CFC, offset: 0x10CFC, size: 0x8, addend: 0x0, symName: __ZNSt3__119__libcpp_deallocateB8ne180100EPvmm, symObjAddr: 0x39A0, symBinAddr: 0x100005F84, symSize: 0x30 }
  - { offsetInCU: 0x10D44, offset: 0x10D44, size: 0x8, addend: 0x0, symName: __ZNSt3__127__do_deallocate_handle_sizeB8ne180100IJEEEvPvmDpT_, symObjAddr: 0x39D0, symBinAddr: 0x100005FB4, symSize: 0x28 }
  - { offsetInCU: 0x10D82, offset: 0x10D82, size: 0x8, addend: 0x0, symName: __ZNSt3__124__libcpp_operator_deleteB8ne180100IJPvEEEvDpT_, symObjAddr: 0x39F8, symBinAddr: 0x100005FDC, symSize: 0x24 }
  - { offsetInCU: 0x10DD5, offset: 0x10DD5, size: 0x8, addend: 0x0, symName: __ZNSt3__117__libcpp_allocateB8ne180100Emm, symObjAddr: 0x4234, symBinAddr: 0x100006818, symSize: 0x28 }
  - { offsetInCU: 0x10E12, offset: 0x10E12, size: 0x8, addend: 0x0, symName: __ZNSt3__121__libcpp_operator_newB8ne180100IJmEEEPvDpT_, symObjAddr: 0x4270, symBinAddr: 0x100006854, symSize: 0x24 }
  - { offsetInCU: 0x10E4B, offset: 0x10E4B, size: 0x8, addend: 0x0, symName: __ZNSt3__127__tree_balance_after_insertB8ne180100IPNS_16__tree_node_baseIPvEEEEvT_S5_, symObjAddr: 0x44A8, symBinAddr: 0x100006A8C, symSize: 0x340 }
  - { offsetInCU: 0x10EBF, offset: 0x10EBF, size: 0x8, addend: 0x0, symName: __ZNSt3__120__tree_is_left_childB8ne180100IPNS_16__tree_node_baseIPvEEEEbT_, symObjAddr: 0x4828, symBinAddr: 0x100006E0C, symSize: 0x2C }
  - { offsetInCU: 0x10EF4, offset: 0x10EF4, size: 0x8, addend: 0x0, symName: __ZNSt3__118__tree_left_rotateB8ne180100IPNS_16__tree_node_baseIPvEEEEvT_, symObjAddr: 0x4854, symBinAddr: 0x100006E38, symSize: 0xEC }
  - { offsetInCU: 0x10F33, offset: 0x10F33, size: 0x8, addend: 0x0, symName: __ZNSt3__119__tree_right_rotateB8ne180100IPNS_16__tree_node_baseIPvEEEEvT_, symObjAddr: 0x4940, symBinAddr: 0x100006F24, symSize: 0xCC }
  - { offsetInCU: 0x10F75, offset: 0x10F75, size: 0x8, addend: 0x0, symName: __ZNSt3__112__destroy_atB8ne180100INS_12basic_stringIcNS_11char_traitsIcEENS_9allocatorIcEEEELi0EEEvPT_, symObjAddr: 0x4C78, symBinAddr: 0x10000725C, symSize: 0x24 }
  - { offsetInCU: 0x10FAC, offset: 0x10FAC, size: 0x8, addend: 0x0, symName: __ZNSt3__112__destroy_atB8ne180100IKiLi0EEEvPT_, symObjAddr: 0x4C9C, symBinAddr: 0x100007280, symSize: 0x10 }
  - { offsetInCU: 0x10FE3, offset: 0x10FE3, size: 0x8, addend: 0x0, symName: __ZNSt3__112__to_addressB8ne180100I7FlowLogEEPT_S3_, symObjAddr: 0x5384, symBinAddr: 0x100007968, symSize: 0x14 }
  - { offsetInCU: 0x11018, offset: 0x11018, size: 0x8, addend: 0x0, symName: __ZNSt3__19use_facetB8ne180100INS_5ctypeIcEEEERKT_RKNS_6localeE, symObjAddr: 0x5558, symBinAddr: 0x100007B3C, symSize: 0x2C }
  - { offsetInCU: 0x117F9, offset: 0x117F9, size: 0x8, addend: 0x0, symName: __ZNSt3__13maxB8ne180100ImEERKT_S3_S3_, symObjAddr: 0x660C, symBinAddr: 0x100008BF0, symSize: 0x2C }
  - { offsetInCU: 0x1183C, offset: 0x1183C, size: 0x8, addend: 0x0, symName: __ZNSt3__13minB8ne180100ImEERKT_S3_S3_, symObjAddr: 0x6638, symBinAddr: 0x100008C1C, symSize: 0x2C }
  - { offsetInCU: 0x1187F, offset: 0x1187F, size: 0x8, addend: 0x0, symName: __ZNSt3__13minB8ne180100ImNS_6__lessIvvEEEERKT_S5_S5_T0_, symObjAddr: 0x66B0, symBinAddr: 0x100008C94, symSize: 0x54 }
  - { offsetInCU: 0x1191E, offset: 0x1191E, size: 0x8, addend: 0x0, symName: __ZNSt3__120__throw_length_errorB8ne180100EPKc, symObjAddr: 0x6788, symBinAddr: 0x100008D6C, symSize: 0x64 }
  - { offsetInCU: 0x11946, offset: 0x11946, size: 0x8, addend: 0x0, symName: __ZNSt3__13maxB8ne180100ImNS_6__lessIvvEEEERKT_S5_S5_T0_, symObjAddr: 0x686C, symBinAddr: 0x100008E50, symSize: 0x54 }
  - { offsetInCU: 0x119A0, offset: 0x119A0, size: 0x8, addend: 0x0, symName: __ZNSt3__119__allocate_at_leastB8ne180100INS_9allocatorI7FlowLogEEEENS_19__allocation_resultINS_16allocator_traitsIT_E7pointerEEERS6_m, symObjAddr: 0x69DC, symBinAddr: 0x100008FC0, symSize: 0x40 }
  - { offsetInCU: 0x119E3, offset: 0x119E3, size: 0x8, addend: 0x0, symName: __ZNSt3__142__uninitialized_allocator_move_if_noexceptB8ne180100INS_9allocatorI7FlowLogEENS_16reverse_iteratorIPS2_EES6_S6_EET2_RT_T0_T1_S7_, symObjAddr: 0x6BC4, symBinAddr: 0x1000091A8, symSize: 0x134 }
  - { offsetInCU: 0x11A83, offset: 0x11A83, size: 0x8, addend: 0x0, symName: __ZNSt3__14swapB8ne180100IP7FlowLogEEvRT_S4_, symObjAddr: 0x6D44, symBinAddr: 0x100009328, symSize: 0x3C }
  - { offsetInCU: 0x11AD4, offset: 0x11AD4, size: 0x8, addend: 0x0, symName: __ZNSt3__122__make_exception_guardB8ne180100INS_29_AllocatorDestroyRangeReverseINS_9allocatorI7FlowLogEENS_16reverse_iteratorIPS3_EEEEEENS_28__exception_guard_exceptionsIT_EESA_, symObjAddr: 0x6D94, symBinAddr: 0x100009378, symSize: 0x4C }
  - { offsetInCU: 0x11B0A, offset: 0x11B0A, size: 0x8, addend: 0x0, symName: __ZNSt3__1neB8ne180100IP7FlowLogS2_EEbRKNS_16reverse_iteratorIT_EERKNS3_IT0_EE, symObjAddr: 0x6E24, symBinAddr: 0x100009408, symSize: 0x48 }
  - { offsetInCU: 0x11B56, offset: 0x11B56, size: 0x8, addend: 0x0, symName: __ZNSt3__112__to_addressB8ne180100INS_16reverse_iteratorIP7FlowLogEEvEEu7__decayIDTclsr19__to_address_helperIT_EE6__callclsr3stdE7declvalIRKS5_EEEEES7_, symObjAddr: 0x6E6C, symBinAddr: 0x100009450, symSize: 0x24 }
  - { offsetInCU: 0x11BB5, offset: 0x11BB5, size: 0x8, addend: 0x0, symName: __ZNSt3__119__allocator_destroyB8ne180100INS_9allocatorI7FlowLogEENS_16reverse_iteratorINS4_IPS2_EEEES7_EEvRT_T0_T1_, symObjAddr: 0x7128, symBinAddr: 0x10000970C, symSize: 0x70 }
  - { offsetInCU: 0x11C1A, offset: 0x11C1A, size: 0x8, addend: 0x0, symName: __ZNSt3__1neB8ne180100INS_16reverse_iteratorIP7FlowLogEES4_EEbRKNS1_IT_EERKNS1_IT0_EE, symObjAddr: 0x71D4, symBinAddr: 0x1000097B8, symSize: 0x60 }
  - { offsetInCU: 0x11C66, offset: 0x11C66, size: 0x8, addend: 0x0, symName: __ZNSt3__112__to_addressB8ne180100INS_16reverse_iteratorINS1_IP7FlowLogEEEEvEEu7__decayIDTclsr19__to_address_helperIT_EE6__callclsr3stdE7declvalIRKS6_EEEEES8_, symObjAddr: 0x7234, symBinAddr: 0x100009818, symSize: 0x24 }
  - { offsetInCU: 0x11CC5, offset: 0x11CC5, size: 0x8, addend: 0x0, symName: __ZNSt3__112__destroy_atB8ne180100INS_4pairIKNS1_IiNS_12basic_stringIcNS_11char_traitsIcEENS_9allocatorIcEEEEEES7_EELi0EEEvPT_, symObjAddr: 0x7AFC, symBinAddr: 0x10000A0E0, symSize: 0x24 }
  - { offsetInCU: 0x11CFC, offset: 0x11CFC, size: 0x8, addend: 0x0, symName: __ZNSt3__116__pad_and_outputB8ne180100IcNS_11char_traitsIcEEEENS_19ostreambuf_iteratorIT_T0_EES6_PKS4_S8_S8_RNS_8ios_baseES4_, symObjAddr: 0x7FD4, symBinAddr: 0x10000A5B8, symSize: 0x248 }
  - { offsetInCU: 0x11DCB, offset: 0x11DCB, size: 0x8, addend: 0x0, symName: __ZNSt3__112__to_addressB8ne180100IKcEEPT_S3_, symObjAddr: 0x84A8, symBinAddr: 0x10000AA8C, symSize: 0x14 }
  - { offsetInCU: 0x11E33, offset: 0x11E33, size: 0x8, addend: 0x0, symName: __ZNSt3__1ltB8ne180100IiNS_12basic_stringIcNS_11char_traitsIcEENS_9allocatorIcEEEEiS6_EEbRKNS_4pairIT_T0_EERKNS7_IT1_T2_EE, symObjAddr: 0x8B38, symBinAddr: 0x10000B11C, symSize: 0xA0 }
  - { offsetInCU: 0x11E94, offset: 0x11E94, size: 0x8, addend: 0x0, symName: __ZNSt3__1ltB8ne180100IcNS_11char_traitsIcEENS_9allocatorIcEEEEbRKNS_12basic_stringIT_T0_T1_EESB_, symObjAddr: 0x8BD8, symBinAddr: 0x10000B1BC, symSize: 0x38 }
  - { offsetInCU: 0x11F0A, offset: 0x11F0A, size: 0x8, addend: 0x0, symName: __ZNSt3__112__destroy_atB8ne180100IKNS_4pairIiNS_12basic_stringIcNS_11char_traitsIcEENS_9allocatorIcEEEEEELi0EEEvPT_, symObjAddr: 0x95F8, symBinAddr: 0x10000BBDC, symSize: 0x24 }
  - { offsetInCU: 0x11F41, offset: 0x11F41, size: 0x8, addend: 0x0, symName: __ZNSt3__118__constexpr_strlenB8ne180100EPKc, symObjAddr: 0x9664, symBinAddr: 0x10000BC48, symSize: 0x24 }
  - { offsetInCU: 0x11F6D, offset: 0x11F6D, size: 0x8, addend: 0x0, symName: __ZNSt3__112__destroy_atB8ne180100INS_4pairIKNS_12basic_stringIcNS_11char_traitsIcEENS_9allocatorIcEEEEiEELi0EEEvPT_, symObjAddr: 0x9BCC, symBinAddr: 0x10000C1B0, symSize: 0x24 }
  - { offsetInCU: 0x11FA4, offset: 0x11FA4, size: 0x8, addend: 0x0, symName: __ZNSt3__112__destroy_atB8ne180100INS_4pairIKNS1_IiNS_12basic_stringIcNS_11char_traitsIcEENS_9allocatorIcEEEEEEiEELi0EEEvPT_, symObjAddr: 0xA260, symBinAddr: 0x10000C844, symSize: 0x24 }
  - { offsetInCU: 0x11FDB, offset: 0x11FDB, size: 0x8, addend: 0x0, symName: __ZNSt3__1neB8ne180100ERKNS_15__tree_iteratorINS_12__value_typeINS_4pairIiNS_12basic_stringIcNS_11char_traitsIcEENS_9allocatorIcEEEEEES8_EEPNS_11__tree_nodeISA_PvEElEESH_, symObjAddr: 0xA5DC, symBinAddr: 0x10000CBC0, symSize: 0x34 }
  - { offsetInCU: 0x12018, offset: 0x12018, size: 0x8, addend: 0x0, symName: __ZNSt3__1eqB8ne180100ERKNS_15__tree_iteratorINS_12__value_typeINS_4pairIiNS_12basic_stringIcNS_11char_traitsIcEENS_9allocatorIcEEEEEES8_EEPNS_11__tree_nodeISA_PvEElEESH_, symObjAddr: 0xA6C0, symBinAddr: 0x10000CCA4, symSize: 0x30 }
  - { offsetInCU: 0x12073, offset: 0x12073, size: 0x8, addend: 0x0, symName: __ZNSt3__112__destroy_atB8ne180100IiLi0EEEvPT_, symObjAddr: 0xB32C, symBinAddr: 0x10000D910, symSize: 0x10 }
  - { offsetInCU: 0x120AA, offset: 0x120AA, size: 0x8, addend: 0x0, symName: __ZNSt3__112__destroy_atB8ne180100IKNS_12basic_stringIcNS_11char_traitsIcEENS_9allocatorIcEEEELi0EEEvPT_, symObjAddr: 0xB33C, symBinAddr: 0x10000D920, symSize: 0x24 }
  - { offsetInCU: 0x120FF, offset: 0x120FF, size: 0x8, addend: 0x0, symName: __ZNSt3__1neB8ne180100ERKNS_15__tree_iteratorINS_12__value_typeINS_12basic_stringIcNS_11char_traitsIcEENS_9allocatorIcEEEEiEEPNS_11__tree_nodeIS8_PvEElEESF_, symObjAddr: 0xC0B4, symBinAddr: 0x10000E698, symSize: 0x34 }
  - { offsetInCU: 0x1213C, offset: 0x1213C, size: 0x8, addend: 0x0, symName: __ZNSt3__1eqB8ne180100ERKNS_15__tree_iteratorINS_12__value_typeINS_12basic_stringIcNS_11char_traitsIcEENS_9allocatorIcEEEEiEEPNS_11__tree_nodeIS8_PvEElEESF_, symObjAddr: 0xC0E8, symBinAddr: 0x10000E6CC, symSize: 0x30 }
  - { offsetInCU: 0x12179, offset: 0x12179, size: 0x8, addend: 0x0, symName: __ZNSt3__116__tree_next_iterB8ne180100IPNS_15__tree_end_nodeIPNS_16__tree_node_baseIPvEEEES5_EET_T0_, symObjAddr: 0xC150, symBinAddr: 0x10000E734, symSize: 0x80 }
  - { offsetInCU: 0x121B7, offset: 0x121B7, size: 0x8, addend: 0x0, symName: __ZNSt3__110__tree_minB8ne180100IPNS_16__tree_node_baseIPvEEEET_S5_, symObjAddr: 0xC1D0, symBinAddr: 0x10000E7B4, symSize: 0x40 }
  - { offsetInCU: 0x1221F, offset: 0x1221F, size: 0x8, addend: 0x0, symName: __ZNSt3__1neB8ne180100ERKNS_15__tree_iteratorINS_12__value_typeINS_4pairIiNS_12basic_stringIcNS_11char_traitsIcEENS_9allocatorIcEEEEEEiEEPNS_11__tree_nodeISA_PvEElEESH_, symObjAddr: 0xC378, symBinAddr: 0x10000E95C, symSize: 0x34 }
  - { offsetInCU: 0x1225C, offset: 0x1225C, size: 0x8, addend: 0x0, symName: __ZNSt3__1eqB8ne180100ERKNS_15__tree_iteratorINS_12__value_typeINS_4pairIiNS_12basic_stringIcNS_11char_traitsIcEENS_9allocatorIcEEEEEEiEEPNS_11__tree_nodeISA_PvEElEESH_, symObjAddr: 0xC3AC, symBinAddr: 0x10000E990, symSize: 0x30 }
  - { offsetInCU: 0x124DB, offset: 0x124DB, size: 0x8, addend: 0x0, symName: __ZSt28__throw_bad_array_new_lengthB8ne180100v, symObjAddr: 0x4200, symBinAddr: 0x1000067E4, symSize: 0x34 }
  - { offsetInCU: 0x12DFA, offset: 0x12DFA, size: 0x8, addend: 0x0, symName: __ZNSt3__16vectorI7FlowLogNS_9allocatorIS1_EEE26__swap_out_circular_bufferERNS_14__split_bufferIS1_RS3_EE, symObjAddr: 0x6440, symBinAddr: 0x100008A24, symSize: 0x110 }
  - { offsetInCU: 0x140EE, offset: 0x140EE, size: 0x8, addend: 0x0, symName: __Z7toloweri, symObjAddr: 0xCC, symBinAddr: 0x1000026B0, symSize: 0x24 }
  - { offsetInCU: 0x15BC5, offset: 0x15BC5, size: 0x8, addend: 0x0, symName: __Z18convertToLowerCaseNSt3__112basic_stringIcNS_11char_traitsIcEENS_9allocatorIcEEEE, symObjAddr: 0x0, symBinAddr: 0x1000025E4, symSize: 0xA8 }
  - { offsetInCU: 0x15C0F, offset: 0x15C0F, size: 0x8, addend: 0x0, symName: __ZNKSt3__112basic_stringIcNS_11char_traitsIcEENS_9allocatorIcEEE6lengthB8ne180100Ev, symObjAddr: 0xA8, symBinAddr: 0x10000268C, symSize: 0x24 }
  - { offsetInCU: 0x15C35, offset: 0x15C35, size: 0x8, addend: 0x0, symName: __ZNSt3__112basic_stringIcNS_11char_traitsIcEENS_9allocatorIcEEEixB8ne180100Em, symObjAddr: 0xF0, symBinAddr: 0x1000026D4, symSize: 0x48 }
  - { offsetInCU: 0x15C6A, offset: 0x15C6A, size: 0x8, addend: 0x0, symName: _main, symObjAddr: 0x138, symBinAddr: 0x10000271C, symSize: 0xFE8 }
  - { offsetInCU: 0x15E91, offset: 0x15E91, size: 0x8, addend: 0x0, symName: __ZNSt3__13mapIiNS_12basic_stringIcNS_11char_traitsIcEENS_9allocatorIcEEEENS_4lessIiEENS4_INS_4pairIKiS6_EEEEEC1B8ne180100Ev, symObjAddr: 0x1120, symBinAddr: 0x100003704, symSize: 0x2C }
  - { offsetInCU: 0x15EBB, offset: 0x15EBB, size: 0x8, addend: 0x0, symName: __ZNSt3__13mapIiNS_12basic_stringIcNS_11char_traitsIcEENS_9allocatorIcEEEENS_4lessIiEENS4_INS_4pairIKiS6_EEEEEixERSA_, symObjAddr: 0x114C, symBinAddr: 0x100003730, symSize: 0xC8 }
  - { offsetInCU: 0x15F34, offset: 0x15F34, size: 0x8, addend: 0x0, symName: __ZNSt3__112basic_stringIcNS_11char_traitsIcEENS_9allocatorIcEEEaSB8ne180100EPKc, symObjAddr: 0x1214, symBinAddr: 0x1000037F8, symSize: 0x2C }
  - { offsetInCU: 0x16087, offset: 0x16087, size: 0x8, addend: 0x0, symName: __ZNSt3__114basic_ifstreamIcNS_11char_traitsIcEEEC1EPKcj, symObjAddr: 0x1240, symBinAddr: 0x100003824, symSize: 0x17C }
  - { offsetInCU: 0x160D1, offset: 0x160D1, size: 0x8, addend: 0x0, symName: __ZNSt3__112basic_stringIcNS_11char_traitsIcEENS_9allocatorIcEEEC1B8ne180100Ev, symObjAddr: 0x13BC, symBinAddr: 0x1000039A0, symSize: 0x2C }
  - { offsetInCU: 0x160FB, offset: 0x160FB, size: 0x8, addend: 0x0, symName: __ZNSt3__16vectorI7FlowLogNS_9allocatorIS1_EEEC1B8ne180100Ev, symObjAddr: 0x13E8, symBinAddr: 0x1000039CC, symSize: 0x2C }
  - { offsetInCU: 0x16125, offset: 0x16125, size: 0x8, addend: 0x0, symName: __ZNKSt3__19basic_iosIcNS_11char_traitsIcEEEcvPvB8ne180100Ev, symObjAddr: 0x1470, symBinAddr: 0x100003A54, symSize: 0x4C }
  - { offsetInCU: 0x1619B, offset: 0x1619B, size: 0x8, addend: 0x0, symName: __ZNSt3__119basic_istringstreamIcNS_11char_traitsIcEENS_9allocatorIcEEEC1B8ne180100ERKNS_12basic_stringIcS2_S4_EEj, symObjAddr: 0x14BC, symBinAddr: 0x100003AA0, symSize: 0x108 }
  - { offsetInCU: 0x161E8, offset: 0x161E8, size: 0x8, addend: 0x0, symName: __ZN7FlowLogC1Ev, symObjAddr: 0x15C4, symBinAddr: 0x100003BA8, symSize: 0x2C }
  - { offsetInCU: 0x16214, offset: 0x16214, size: 0x8, addend: 0x0, symName: __ZNKSt3__19basic_iosIcNS_11char_traitsIcEEEntB8ne180100Ev, symObjAddr: 0x1914, symBinAddr: 0x100003EF8, symSize: 0x28 }
  - { offsetInCU: 0x1623A, offset: 0x1623A, size: 0x8, addend: 0x0, symName: __ZNSt3__16vectorI7FlowLogNS_9allocatorIS1_EEE9push_backB8ne180100ERKS1_, symObjAddr: 0x193C, symBinAddr: 0x100003F20, symSize: 0x90 }
  - { offsetInCU: 0x16280, offset: 0x16280, size: 0x8, addend: 0x0, symName: __ZN7FlowLogD1Ev, symObjAddr: 0x19CC, symBinAddr: 0x100003FB0, symSize: 0x2C }
  - { offsetInCU: 0x162B1, offset: 0x162B1, size: 0x8, addend: 0x0, symName: __ZNSt3__119basic_istringstreamIcNS_11char_traitsIcEENS_9allocatorIcEEED1Ev, symObjAddr: 0x1A04, symBinAddr: 0x100003FE8, symSize: 0x70 }
  - { offsetInCU: 0x162DE, offset: 0x162DE, size: 0x8, addend: 0x0, symName: __ZNSt3__114basic_ifstreamIcNS_11char_traitsIcEEE5closeEv, symObjAddr: 0x1A74, symBinAddr: 0x100004058, symSize: 0x58 }
  - { offsetInCU: 0x16306, offset: 0x16306, size: 0x8, addend: 0x0, symName: __ZNSt3__13mapINS_4pairIiNS_12basic_stringIcNS_11char_traitsIcEENS_9allocatorIcEEEEEES7_NS_4lessIS8_EENS5_INS1_IKS8_S7_EEEEEC1B8ne180100Ev, symObjAddr: 0x1ACC, symBinAddr: 0x1000040B0, symSize: 0x2C }
  - { offsetInCU: 0x16362, offset: 0x16362, size: 0x8, addend: 0x0, symName: __ZNSt3__118basic_stringstreamIcNS_11char_traitsIcEENS_9allocatorIcEEEC1B8ne180100ERKNS_12basic_stringIcS2_S4_EEj, symObjAddr: 0x1AF8, symBinAddr: 0x1000040DC, symSize: 0x11C }
  - { offsetInCU: 0x163AA, offset: 0x163AA, size: 0x8, addend: 0x0, symName: __ZNSt3__113basic_ostreamIcNS_11char_traitsIcEEElsB8ne180100EPFRS3_S4_E, symObjAddr: 0x1E94, symBinAddr: 0x100004478, symSize: 0x2C }
  - { offsetInCU: 0x163DE, offset: 0x163DE, size: 0x8, addend: 0x0, symName: __ZNSt3__14pairIiNS_12basic_stringIcNS_11char_traitsIcEENS_9allocatorIcEEEEEC1B8ne180100Ev, symObjAddr: 0x1F18, symBinAddr: 0x1000044FC, symSize: 0x2C }
  - { offsetInCU: 0x16408, offset: 0x16408, size: 0x8, addend: 0x0, symName: __ZNSt3__13mapINS_4pairIiNS_12basic_stringIcNS_11char_traitsIcEENS_9allocatorIcEEEEEES7_NS_4lessIS8_EENS5_INS1_IKS8_S7_EEEEEixERSB_, symObjAddr: 0x1F44, symBinAddr: 0x100004528, symSize: 0xC8 }
  - { offsetInCU: 0x16481, offset: 0x16481, size: 0x8, addend: 0x0, symName: __ZNSt3__14pairIiNS_12basic_stringIcNS_11char_traitsIcEENS_9allocatorIcEEEEED1Ev, symObjAddr: 0x2054, symBinAddr: 0x100004638, symSize: 0x2C }
  - { offsetInCU: 0x164B2, offset: 0x164B2, size: 0x8, addend: 0x0, symName: __ZNSt3__118basic_stringstreamIcNS_11char_traitsIcEENS_9allocatorIcEEED1Ev, symObjAddr: 0x2080, symBinAddr: 0x100004664, symSize: 0x70 }
  - { offsetInCU: 0x164DF, offset: 0x164DF, size: 0x8, addend: 0x0, symName: __ZNSt3__13mapINS_12basic_stringIcNS_11char_traitsIcEENS_9allocatorIcEEEEiNS_4lessIS6_EENS4_INS_4pairIKS6_iEEEEEC1B8ne180100Ev, symObjAddr: 0x20F0, symBinAddr: 0x1000046D4, symSize: 0x2C }
  - { offsetInCU: 0x16509, offset: 0x16509, size: 0x8, addend: 0x0, symName: __ZNSt3__13mapINS_4pairIiNS_12basic_stringIcNS_11char_traitsIcEENS_9allocatorIcEEEEEEiNS_4lessIS8_EENS5_INS1_IKS8_iEEEEEC1B8ne180100Ev, symObjAddr: 0x211C, symBinAddr: 0x100004700, symSize: 0x2C }
  - { offsetInCU: 0x16538, offset: 0x16538, size: 0x8, addend: 0x0, symName: __ZNSt3__112basic_stringIcNS_11char_traitsIcEENS_9allocatorIcEEEC1B8ne180100ILi0EEEPKc, symObjAddr: 0x2148, symBinAddr: 0x10000472C, symSize: 0x34 }
  - { offsetInCU: 0x16577, offset: 0x16577, size: 0x8, addend: 0x0, symName: __ZNKSt3__16vectorI7FlowLogNS_9allocatorIS1_EEE4sizeB8ne180100Ev, symObjAddr: 0x217C, symBinAddr: 0x100004760, symSize: 0x28 }
  - { offsetInCU: 0x1659D, offset: 0x1659D, size: 0x8, addend: 0x0, symName: __ZNSt3__16vectorI7FlowLogNS_9allocatorIS1_EEEixB8ne180100Em, symObjAddr: 0x21A4, symBinAddr: 0x100004788, symSize: 0x2C }
  - { offsetInCU: 0x165D4, offset: 0x165D4, size: 0x8, addend: 0x0, symName: __ZNSt3__13mapINS_4pairIiNS_12basic_stringIcNS_11char_traitsIcEENS_9allocatorIcEEEEEES7_NS_4lessIS8_EENS5_INS1_IKS8_S7_EEEEE4findB8ne180100ERSB_, symObjAddr: 0x2200, symBinAddr: 0x1000047E4, symSize: 0x40 }
  - { offsetInCU: 0x16609, offset: 0x16609, size: 0x8, addend: 0x0, symName: __ZNSt3__13mapINS_4pairIiNS_12basic_stringIcNS_11char_traitsIcEENS_9allocatorIcEEEEEES7_NS_4lessIS8_EENS5_INS1_IKS8_S7_EEEEE3endB8ne180100Ev, symObjAddr: 0x2240, symBinAddr: 0x100004824, symSize: 0x38 }
  - { offsetInCU: 0x1662F, offset: 0x1662F, size: 0x8, addend: 0x0, symName: __ZNSt3__13mapINS_12basic_stringIcNS_11char_traitsIcEENS_9allocatorIcEEEEiNS_4lessIS6_EENS4_INS_4pairIKS6_iEEEEEixERSA_, symObjAddr: 0x2278, symBinAddr: 0x10000485C, symSize: 0xC8 }
  - { offsetInCU: 0x166A8, offset: 0x166A8, size: 0x8, addend: 0x0, symName: __ZNSt3__13mapINS_4pairIiNS_12basic_stringIcNS_11char_traitsIcEENS_9allocatorIcEEEEEEiNS_4lessIS8_EENS5_INS1_IKS8_iEEEEEixERSB_, symObjAddr: 0x2340, symBinAddr: 0x100004924, symSize: 0xC8 }
  - { offsetInCU: 0x1673A, offset: 0x1673A, size: 0x8, addend: 0x0, symName: __ZNSt3__114basic_ofstreamIcNS_11char_traitsIcEEEC1EPKcj, symObjAddr: 0x2408, symBinAddr: 0x1000049EC, symSize: 0x17C }
  - { offsetInCU: 0x16784, offset: 0x16784, size: 0x8, addend: 0x0, symName: __ZNSt3__13mapINS_12basic_stringIcNS_11char_traitsIcEENS_9allocatorIcEEEEiNS_4lessIS6_EENS4_INS_4pairIKS6_iEEEEE5beginB8ne180100Ev, symObjAddr: 0x2584, symBinAddr: 0x100004B68, symSize: 0x38 }
  - { offsetInCU: 0x167AA, offset: 0x167AA, size: 0x8, addend: 0x0, symName: __ZNSt3__13mapINS_12basic_stringIcNS_11char_traitsIcEENS_9allocatorIcEEEEiNS_4lessIS6_EENS4_INS_4pairIKS6_iEEEEE3endB8ne180100Ev, symObjAddr: 0x25BC, symBinAddr: 0x100004BA0, symSize: 0x38 }
  - { offsetInCU: 0x167D0, offset: 0x167D0, size: 0x8, addend: 0x0, symName: __ZNKSt3__114__map_iteratorINS_15__tree_iteratorINS_12__value_typeINS_12basic_stringIcNS_11char_traitsIcEENS_9allocatorIcEEEEiEEPNS_11__tree_nodeIS9_PvEElEEEdeB8ne180100Ev, symObjAddr: 0x2624, symBinAddr: 0x100004C08, symSize: 0x28 }
  - { offsetInCU: 0x167F6, offset: 0x167F6, size: 0x8, addend: 0x0, symName: __ZNSt3__114__map_iteratorINS_15__tree_iteratorINS_12__value_typeINS_12basic_stringIcNS_11char_traitsIcEENS_9allocatorIcEEEEiEEPNS_11__tree_nodeIS9_PvEElEEEppB8ne180100Ev, symObjAddr: 0x264C, symBinAddr: 0x100004C30, symSize: 0x2C }
  - { offsetInCU: 0x1681C, offset: 0x1681C, size: 0x8, addend: 0x0, symName: __ZNSt3__13mapINS_4pairIiNS_12basic_stringIcNS_11char_traitsIcEENS_9allocatorIcEEEEEEiNS_4lessIS8_EENS5_INS1_IKS8_iEEEEE5beginB8ne180100Ev, symObjAddr: 0x2678, symBinAddr: 0x100004C5C, symSize: 0x38 }
  - { offsetInCU: 0x16842, offset: 0x16842, size: 0x8, addend: 0x0, symName: __ZNSt3__13mapINS_4pairIiNS_12basic_stringIcNS_11char_traitsIcEENS_9allocatorIcEEEEEEiNS_4lessIS8_EENS5_INS1_IKS8_iEEEEE3endB8ne180100Ev, symObjAddr: 0x26B0, symBinAddr: 0x100004C94, symSize: 0x38 }
  - { offsetInCU: 0x16868, offset: 0x16868, size: 0x8, addend: 0x0, symName: __ZNKSt3__114__map_iteratorINS_15__tree_iteratorINS_12__value_typeINS_4pairIiNS_12basic_stringIcNS_11char_traitsIcEENS_9allocatorIcEEEEEEiEEPNS_11__tree_nodeISB_PvEElEEEdeB8ne180100Ev, symObjAddr: 0x2718, symBinAddr: 0x100004CFC, symSize: 0x28 }
  - { offsetInCU: 0x1688E, offset: 0x1688E, size: 0x8, addend: 0x0, symName: __ZNSt3__114__map_iteratorINS_15__tree_iteratorINS_12__value_typeINS_4pairIiNS_12basic_stringIcNS_11char_traitsIcEENS_9allocatorIcEEEEEEiEEPNS_11__tree_nodeISB_PvEElEEEppB8ne180100Ev, symObjAddr: 0x2740, symBinAddr: 0x100004D24, symSize: 0x2C }
  - { offsetInCU: 0x168B4, offset: 0x168B4, size: 0x8, addend: 0x0, symName: __ZNSt3__114basic_ofstreamIcNS_11char_traitsIcEEE5closeEv, symObjAddr: 0x276C, symBinAddr: 0x100004D50, symSize: 0x58 }
  - { offsetInCU: 0x168E1, offset: 0x168E1, size: 0x8, addend: 0x0, symName: __ZNSt3__114basic_ofstreamIcNS_11char_traitsIcEEED1Ev, symObjAddr: 0x27C4, symBinAddr: 0x100004DA8, symSize: 0x70 }
  - { offsetInCU: 0x1690E, offset: 0x1690E, size: 0x8, addend: 0x0, symName: __ZNSt3__13mapINS_4pairIiNS_12basic_stringIcNS_11char_traitsIcEENS_9allocatorIcEEEEEEiNS_4lessIS8_EENS5_INS1_IKS8_iEEEEED1B8ne180100Ev, symObjAddr: 0x2834, symBinAddr: 0x100004E18, symSize: 0x2C }
  - { offsetInCU: 0x16938, offset: 0x16938, size: 0x8, addend: 0x0, symName: __ZNSt3__13mapINS_12basic_stringIcNS_11char_traitsIcEENS_9allocatorIcEEEEiNS_4lessIS6_EENS4_INS_4pairIKS6_iEEEEED1B8ne180100Ev, symObjAddr: 0x2860, symBinAddr: 0x100004E44, symSize: 0x2C }
  - { offsetInCU: 0x16967, offset: 0x16967, size: 0x8, addend: 0x0, symName: __ZNSt3__114basic_ifstreamIcNS_11char_traitsIcEEED1Ev, symObjAddr: 0x288C, symBinAddr: 0x100004E70, symSize: 0x70 }
  - { offsetInCU: 0x16994, offset: 0x16994, size: 0x8, addend: 0x0, symName: __ZNSt3__13mapINS_4pairIiNS_12basic_stringIcNS_11char_traitsIcEENS_9allocatorIcEEEEEES7_NS_4lessIS8_EENS5_INS1_IKS8_S7_EEEEED1B8ne180100Ev, symObjAddr: 0x28FC, symBinAddr: 0x100004EE0, symSize: 0x2C }
  - { offsetInCU: 0x169BE, offset: 0x169BE, size: 0x8, addend: 0x0, symName: __ZNSt3__16vectorI7FlowLogNS_9allocatorIS1_EEED1B8ne180100Ev, symObjAddr: 0x2928, symBinAddr: 0x100004F0C, symSize: 0x2C }
  - { offsetInCU: 0x169E8, offset: 0x169E8, size: 0x8, addend: 0x0, symName: __ZNSt3__13mapIiNS_12basic_stringIcNS_11char_traitsIcEENS_9allocatorIcEEEENS_4lessIiEENS4_INS_4pairIKiS6_EEEEED1B8ne180100Ev, symObjAddr: 0x2954, symBinAddr: 0x100004F38, symSize: 0x2C }
  - { offsetInCU: 0x16A12, offset: 0x16A12, size: 0x8, addend: 0x0, symName: __ZN7FlowLogC2Ev, symObjAddr: 0x2980, symBinAddr: 0x100004F64, symSize: 0x140 }
  - { offsetInCU: 0x16A3E, offset: 0x16A3E, size: 0x8, addend: 0x0, symName: __ZN7FlowLogD2Ev, symObjAddr: 0x2AC0, symBinAddr: 0x1000050A4, symSize: 0x13C }
  - { offsetInCU: 0x16A6A, offset: 0x16A6A, size: 0x8, addend: 0x0, symName: __ZNSt3__119basic_istringstreamIcNS_11char_traitsIcEENS_9allocatorIcEEED2Ev, symObjAddr: 0x2BFC, symBinAddr: 0x1000051E0, symSize: 0x9C }
  - { offsetInCU: 0x16AA4, offset: 0x16AA4, size: 0x8, addend: 0x0, symName: __ZTv0_n24_NSt3__119basic_istringstreamIcNS_11char_traitsIcEENS_9allocatorIcEEED1Ev, symObjAddr: 0x2C98, symBinAddr: 0x10000527C, symSize: 0x28 }
  - { offsetInCU: 0x16AC0, offset: 0x16AC0, size: 0x8, addend: 0x0, symName: __ZNSt3__115basic_stringbufIcNS_11char_traitsIcEENS_9allocatorIcEEED1Ev, symObjAddr: 0x2CC0, symBinAddr: 0x1000052A4, symSize: 0x2C }
  - { offsetInCU: 0x16AED, offset: 0x16AED, size: 0x8, addend: 0x0, symName: __ZNSt3__115basic_stringbufIcNS_11char_traitsIcEENS_9allocatorIcEEED2Ev, symObjAddr: 0x2CEC, symBinAddr: 0x1000052D0, symSize: 0x78 }
  - { offsetInCU: 0x16B1A, offset: 0x16B1A, size: 0x8, addend: 0x0, symName: __ZNSt3__14pairIiNS_12basic_stringIcNS_11char_traitsIcEENS_9allocatorIcEEEEED2Ev, symObjAddr: 0x2D64, symBinAddr: 0x100005348, symSize: 0x30 }
  - { offsetInCU: 0x16B46, offset: 0x16B46, size: 0x8, addend: 0x0, symName: __ZNSt3__118basic_stringstreamIcNS_11char_traitsIcEENS_9allocatorIcEEED2Ev, symObjAddr: 0x2D94, symBinAddr: 0x100005378, symSize: 0xA4 }
  - { offsetInCU: 0x16B80, offset: 0x16B80, size: 0x8, addend: 0x0, symName: __ZThn16_NSt3__118basic_stringstreamIcNS_11char_traitsIcEENS_9allocatorIcEEED1Ev, symObjAddr: 0x2E38, symBinAddr: 0x10000541C, symSize: 0x1C }
  - { offsetInCU: 0x16B97, offset: 0x16B97, size: 0x8, addend: 0x0, symName: __ZTv0_n24_NSt3__118basic_stringstreamIcNS_11char_traitsIcEENS_9allocatorIcEEED1Ev, symObjAddr: 0x2E54, symBinAddr: 0x100005438, symSize: 0x28 }
  - { offsetInCU: 0x16BAE, offset: 0x16BAE, size: 0x8, addend: 0x0, symName: __ZNSt3__114basic_ofstreamIcNS_11char_traitsIcEEED2Ev, symObjAddr: 0x2E7C, symBinAddr: 0x100005460, symSize: 0x9C }
  - { offsetInCU: 0x16BE8, offset: 0x16BE8, size: 0x8, addend: 0x0, symName: __ZTv0_n24_NSt3__114basic_ofstreamIcNS_11char_traitsIcEEED1Ev, symObjAddr: 0x2F18, symBinAddr: 0x1000054FC, symSize: 0x28 }
  - { offsetInCU: 0x16BFF, offset: 0x16BFF, size: 0x8, addend: 0x0, symName: __ZNSt3__114basic_ifstreamIcNS_11char_traitsIcEEED2Ev, symObjAddr: 0x2F40, symBinAddr: 0x100005524, symSize: 0x9C }
  - { offsetInCU: 0x16C39, offset: 0x16C39, size: 0x8, addend: 0x0, symName: __ZTv0_n24_NSt3__114basic_ifstreamIcNS_11char_traitsIcEEED1Ev, symObjAddr: 0x2FDC, symBinAddr: 0x1000055C0, symSize: 0x28 }
  - { offsetInCU: 0x16C50, offset: 0x16C50, size: 0x8, addend: 0x0, symName: __ZNKSt3__112basic_stringIcNS_11char_traitsIcEENS_9allocatorIcEEE4sizeB8ne180100Ev, symObjAddr: 0x3004, symBinAddr: 0x1000055E8, symSize: 0x54 }
  - { offsetInCU: 0x16C76, offset: 0x16C76, size: 0x8, addend: 0x0, symName: __ZNKSt3__112basic_stringIcNS_11char_traitsIcEENS_9allocatorIcEEE9__is_longB8ne180100Ev, symObjAddr: 0x3058, symBinAddr: 0x10000563C, symSize: 0x94 }
  - { offsetInCU: 0x16C9C, offset: 0x16C9C, size: 0x8, addend: 0x0, symName: __ZNKSt3__112basic_stringIcNS_11char_traitsIcEENS_9allocatorIcEEE15__get_long_sizeB8ne180100Ev, symObjAddr: 0x30EC, symBinAddr: 0x1000056D0, symSize: 0x28 }
  - { offsetInCU: 0x16CC2, offset: 0x16CC2, size: 0x8, addend: 0x0, symName: __ZNKSt3__112basic_stringIcNS_11char_traitsIcEENS_9allocatorIcEEE16__get_short_sizeB8ne180100Ev, symObjAddr: 0x3114, symBinAddr: 0x1000056F8, symSize: 0x34 }
  - { offsetInCU: 0x16CE8, offset: 0x16CE8, size: 0x8, addend: 0x0, symName: __ZNKSt3__117__compressed_pairINS_12basic_stringIcNS_11char_traitsIcEENS_9allocatorIcEEE5__repES5_E5firstB8ne180100Ev, symObjAddr: 0x3154, symBinAddr: 0x100005738, symSize: 0x24 }
  - { offsetInCU: 0x16D0E, offset: 0x16D0E, size: 0x8, addend: 0x0, symName: __ZNKSt3__122__compressed_pair_elemINS_12basic_stringIcNS_11char_traitsIcEENS_9allocatorIcEEE5__repELi0ELb0EE5__getB8ne180100Ev, symObjAddr: 0x3178, symBinAddr: 0x10000575C, symSize: 0x14 }
  - { offsetInCU: 0x16D34, offset: 0x16D34, size: 0x8, addend: 0x0, symName: __ZNSt3__112basic_stringIcNS_11char_traitsIcEENS_9allocatorIcEEE13__fits_in_ssoB8ne180100Em, symObjAddr: 0x318C, symBinAddr: 0x100005770, symSize: 0x20 }
  - { offsetInCU: 0x16D58, offset: 0x16D58, size: 0x8, addend: 0x0, symName: __ZNSt3__112basic_stringIcNS_11char_traitsIcEENS_9allocatorIcEEE18__get_long_pointerB8ne180100Ev, symObjAddr: 0x31AC, symBinAddr: 0x100005790, symSize: 0x28 }
  - { offsetInCU: 0x16D7E, offset: 0x16D7E, size: 0x8, addend: 0x0, symName: __ZNSt3__112basic_stringIcNS_11char_traitsIcEENS_9allocatorIcEEE13__get_pointerB8ne180100Ev, symObjAddr: 0x31D4, symBinAddr: 0x1000057B8, symSize: 0x54 }
  - { offsetInCU: 0x16DA4, offset: 0x16DA4, size: 0x8, addend: 0x0, symName: __ZNSt3__117__compressed_pairINS_12basic_stringIcNS_11char_traitsIcEENS_9allocatorIcEEE5__repES5_E5firstB8ne180100Ev, symObjAddr: 0x3228, symBinAddr: 0x10000580C, symSize: 0x24 }
  - { offsetInCU: 0x16DCA, offset: 0x16DCA, size: 0x8, addend: 0x0, symName: __ZNSt3__122__compressed_pair_elemINS_12basic_stringIcNS_11char_traitsIcEENS_9allocatorIcEEE5__repELi0ELb0EE5__getB8ne180100Ev, symObjAddr: 0x324C, symBinAddr: 0x100005830, symSize: 0x14 }
  - { offsetInCU: 0x16DF0, offset: 0x16DF0, size: 0x8, addend: 0x0, symName: __ZNSt3__112basic_stringIcNS_11char_traitsIcEENS_9allocatorIcEEE19__get_short_pointerB8ne180100Ev, symObjAddr: 0x3260, symBinAddr: 0x100005844, symSize: 0x28 }
  - { offsetInCU: 0x16E16, offset: 0x16E16, size: 0x8, addend: 0x0, symName: __ZNSt3__114pointer_traitsIPcE10pointer_toB8ne180100ERc, symObjAddr: 0x3288, symBinAddr: 0x10000586C, symSize: 0x14 }
  - { offsetInCU: 0x16E39, offset: 0x16E39, size: 0x8, addend: 0x0, symName: __ZNSt3__13mapIiNS_12basic_stringIcNS_11char_traitsIcEENS_9allocatorIcEEEENS_4lessIiEENS4_INS_4pairIKiS6_EEEEEC2B8ne180100Ev, symObjAddr: 0x329C, symBinAddr: 0x100005880, symSize: 0x40 }
  - { offsetInCU: 0x16E63, offset: 0x16E63, size: 0x8, addend: 0x0, symName: __ZNSt3__119__map_value_compareIiNS_12__value_typeIiNS_12basic_stringIcNS_11char_traitsIcEENS_9allocatorIcEEEEEENS_4lessIiEELb1EEC1B8ne180100ESA_, symObjAddr: 0x32DC, symBinAddr: 0x1000058C0, symSize: 0x2C }
  - { offsetInCU: 0x16E9C, offset: 0x16E9C, size: 0x8, addend: 0x0, symName: __ZNSt3__16__treeINS_12__value_typeIiNS_12basic_stringIcNS_11char_traitsIcEENS_9allocatorIcEEEEEENS_19__map_value_compareIiS8_NS_4lessIiEELb1EEENS5_IS8_EEEC1ERKSC_, symObjAddr: 0x3308, symBinAddr: 0x1000058EC, symSize: 0x34 }
  - { offsetInCU: 0x16ED7, offset: 0x16ED7, size: 0x8, addend: 0x0, symName: __ZNSt3__119__map_value_compareIiNS_12__value_typeIiNS_12basic_stringIcNS_11char_traitsIcEENS_9allocatorIcEEEEEENS_4lessIiEELb1EEC2B8ne180100ESA_, symObjAddr: 0x333C, symBinAddr: 0x100005920, symSize: 0x14 }
  - { offsetInCU: 0x16F10, offset: 0x16F10, size: 0x8, addend: 0x0, symName: __ZNSt3__16__treeINS_12__value_typeIiNS_12basic_stringIcNS_11char_traitsIcEENS_9allocatorIcEEEEEENS_19__map_value_compareIiS8_NS_4lessIiEELb1EEENS5_IS8_EEEC2ERKSC_, symObjAddr: 0x3350, symBinAddr: 0x100005934, symSize: 0x70 }
  - { offsetInCU: 0x16F4B, offset: 0x16F4B, size: 0x8, addend: 0x0, symName: __ZNSt3__117__compressed_pairINS_15__tree_end_nodeIPNS_16__tree_node_baseIPvEEEENS_9allocatorINS_11__tree_nodeINS_12__value_typeIiNS_12basic_stringIcNS_11char_traitsIcEENS7_IcEEEEEES3_EEEEEC1B8ne180100ILb1EvEEv, symObjAddr: 0x33C0, symBinAddr: 0x1000059A4, symSize: 0x2C }
  - { offsetInCU: 0x16F85, offset: 0x16F85, size: 0x8, addend: 0x0, symName: __ZNSt3__117__compressed_pairImNS_19__map_value_compareIiNS_12__value_typeIiNS_12basic_stringIcNS_11char_traitsIcEENS_9allocatorIcEEEEEENS_4lessIiEELb1EEEEC1B8ne180100IiRKSC_EEOT_OT0_, symObjAddr: 0x33EC, symBinAddr: 0x1000059D0, symSize: 0x3C }
  - { offsetInCU: 0x16FDD, offset: 0x16FDD, size: 0x8, addend: 0x0, symName: __ZNSt3__16__treeINS_12__value_typeIiNS_12basic_stringIcNS_11char_traitsIcEENS_9allocatorIcEEEEEENS_19__map_value_compareIiS8_NS_4lessIiEELb1EEENS5_IS8_EEE10__end_nodeB8ne180100Ev, symObjAddr: 0x3428, symBinAddr: 0x100005A0C, symSize: 0x2C }
  - { offsetInCU: 0x17003, offset: 0x17003, size: 0x8, addend: 0x0, symName: __ZNSt3__16__treeINS_12__value_typeIiNS_12basic_stringIcNS_11char_traitsIcEENS_9allocatorIcEEEEEENS_19__map_value_compareIiS8_NS_4lessIiEELb1EEENS5_IS8_EEE12__begin_nodeB8ne180100Ev, symObjAddr: 0x3454, symBinAddr: 0x100005A38, symSize: 0x14 }
  - { offsetInCU: 0x17029, offset: 0x17029, size: 0x8, addend: 0x0, symName: __ZNSt3__117__compressed_pairINS_15__tree_end_nodeIPNS_16__tree_node_baseIPvEEEENS_9allocatorINS_11__tree_nodeINS_12__value_typeIiNS_12basic_stringIcNS_11char_traitsIcEENS7_IcEEEEEES3_EEEEEC2B8ne180100ILb1EvEEv, symObjAddr: 0x3468, symBinAddr: 0x100005A4C, symSize: 0x34 }
  - { offsetInCU: 0x1705E, offset: 0x1705E, size: 0x8, addend: 0x0, symName: __ZNSt3__122__compressed_pair_elemINS_15__tree_end_nodeIPNS_16__tree_node_baseIPvEEEELi0ELb0EEC2B8ne180100ENS_16__value_init_tagE, symObjAddr: 0x349C, symBinAddr: 0x100005A80, symSize: 0x2C }
  - { offsetInCU: 0x17093, offset: 0x17093, size: 0x8, addend: 0x0, symName: __ZNSt3__122__compressed_pair_elemINS_9allocatorINS_11__tree_nodeINS_12__value_typeIiNS_12basic_stringIcNS_11char_traitsIcEENS1_IcEEEEEEPvEEEELi1ELb1EEC2B8ne180100ENS_16__value_init_tagE, symObjAddr: 0x34C8, symBinAddr: 0x100005AAC, symSize: 0x2C }
  - { offsetInCU: 0x170C8, offset: 0x170C8, size: 0x8, addend: 0x0, symName: __ZNSt3__115__tree_end_nodeIPNS_16__tree_node_baseIPvEEEC1B8ne180100Ev, symObjAddr: 0x34F4, symBinAddr: 0x100005AD8, symSize: 0x2C }
  - { offsetInCU: 0x170F2, offset: 0x170F2, size: 0x8, addend: 0x0, symName: __ZNSt3__115__tree_end_nodeIPNS_16__tree_node_baseIPvEEEC2B8ne180100Ev, symObjAddr: 0x3520, symBinAddr: 0x100005B04, symSize: 0x18 }
  - { offsetInCU: 0x1711C, offset: 0x1711C, size: 0x8, addend: 0x0, symName: __ZNSt3__19allocatorINS_11__tree_nodeINS_12__value_typeIiNS_12basic_stringIcNS_11char_traitsIcEENS0_IcEEEEEEPvEEEC2B8ne180100Ev, symObjAddr: 0x3538, symBinAddr: 0x100005B1C, symSize: 0x2C }
  - { offsetInCU: 0x17146, offset: 0x17146, size: 0x8, addend: 0x0, symName: __ZNSt3__116__non_trivial_ifILb1ENS_9allocatorINS_11__tree_nodeINS_12__value_typeIiNS_12basic_stringIcNS_11char_traitsIcEENS1_IcEEEEEEPvEEEEEC2B8ne180100Ev, symObjAddr: 0x3564, symBinAddr: 0x100005B48, symSize: 0x14 }
  - { offsetInCU: 0x17170, offset: 0x17170, size: 0x8, addend: 0x0, symName: __ZNSt3__117__compressed_pairImNS_19__map_value_compareIiNS_12__value_typeIiNS_12basic_stringIcNS_11char_traitsIcEENS_9allocatorIcEEEEEENS_4lessIiEELb1EEEEC2B8ne180100IiRKSC_EEOT_OT0_, symObjAddr: 0x3578, symBinAddr: 0x100005B5C, symSize: 0x44 }
  - { offsetInCU: 0x171C8, offset: 0x171C8, size: 0x8, addend: 0x0, symName: __ZNSt3__122__compressed_pair_elemImLi0ELb0EEC2B8ne180100IivEEOT_, symObjAddr: 0x35BC, symBinAddr: 0x100005BA0, symSize: 0x24 }
  - { offsetInCU: 0x1720A, offset: 0x1720A, size: 0x8, addend: 0x0, symName: __ZNSt3__122__compressed_pair_elemINS_19__map_value_compareIiNS_12__value_typeIiNS_12basic_stringIcNS_11char_traitsIcEENS_9allocatorIcEEEEEENS_4lessIiEELb1EEELi1ELb1EEC2B8ne180100IRKSC_vEEOT_, symObjAddr: 0x35E0, symBinAddr: 0x100005BC4, symSize: 0x18 }
  - { offsetInCU: 0x1724C, offset: 0x1724C, size: 0x8, addend: 0x0, symName: __ZNSt3__114pointer_traitsIPNS_15__tree_end_nodeIPNS_16__tree_node_baseIPvEEEEE10pointer_toB8ne180100ERS6_, symObjAddr: 0x35F8, symBinAddr: 0x100005BDC, symSize: 0x14 }
  - { offsetInCU: 0x1726F, offset: 0x1726F, size: 0x8, addend: 0x0, symName: __ZNSt3__117__compressed_pairINS_15__tree_end_nodeIPNS_16__tree_node_baseIPvEEEENS_9allocatorINS_11__tree_nodeINS_12__value_typeIiNS_12basic_stringIcNS_11char_traitsIcEENS7_IcEEEEEES3_EEEEE5firstB8ne180100Ev, symObjAddr: 0x360C, symBinAddr: 0x100005BF0, symSize: 0x24 }
  - { offsetInCU: 0x17295, offset: 0x17295, size: 0x8, addend: 0x0, symName: __ZNSt3__122__compressed_pair_elemINS_15__tree_end_nodeIPNS_16__tree_node_baseIPvEEEELi0ELb0EE5__getB8ne180100Ev, symObjAddr: 0x3630, symBinAddr: 0x100005C14, symSize: 0x14 }
  - { offsetInCU: 0x172BB, offset: 0x172BB, size: 0x8, addend: 0x0, symName: __ZNSt3__13mapIiNS_12basic_stringIcNS_11char_traitsIcEENS_9allocatorIcEEEENS_4lessIiEENS4_INS_4pairIKiS6_EEEEED2B8ne180100Ev, symObjAddr: 0x3644, symBinAddr: 0x100005C28, symSize: 0x2C }
  - { offsetInCU: 0x172E5, offset: 0x172E5, size: 0x8, addend: 0x0, symName: __ZNSt3__16__treeINS_12__value_typeIiNS_12basic_stringIcNS_11char_traitsIcEENS_9allocatorIcEEEEEENS_19__map_value_compareIiS8_NS_4lessIiEELb1EEENS5_IS8_EEED1Ev, symObjAddr: 0x3670, symBinAddr: 0x100005C54, symSize: 0x2C }
  - { offsetInCU: 0x17311, offset: 0x17311, size: 0x8, addend: 0x0, symName: __ZNSt3__16__treeINS_12__value_typeIiNS_12basic_stringIcNS_11char_traitsIcEENS_9allocatorIcEEEEEENS_19__map_value_compareIiS8_NS_4lessIiEELb1EEENS5_IS8_EEED2Ev, symObjAddr: 0x369C, symBinAddr: 0x100005C80, symSize: 0x38 }
  - { offsetInCU: 0x1733D, offset: 0x1733D, size: 0x8, addend: 0x0, symName: __ZNSt3__16__treeINS_12__value_typeIiNS_12basic_stringIcNS_11char_traitsIcEENS_9allocatorIcEEEEEENS_19__map_value_compareIiS8_NS_4lessIiEELb1EEENS5_IS8_EEE7destroyEPNS_11__tree_nodeIS8_PvEE, symObjAddr: 0x36D4, symBinAddr: 0x100005CB8, symSize: 0xC0 }
  - { offsetInCU: 0x17391, offset: 0x17391, size: 0x8, addend: 0x0, symName: __ZNKSt3__16__treeINS_12__value_typeIiNS_12basic_stringIcNS_11char_traitsIcEENS_9allocatorIcEEEEEENS_19__map_value_compareIiS8_NS_4lessIiEELb1EEENS5_IS8_EEE6__rootB8ne180100Ev, symObjAddr: 0x3794, symBinAddr: 0x100005D78, symSize: 0x28 }
  - { offsetInCU: 0x173B7, offset: 0x173B7, size: 0x8, addend: 0x0, symName: __ZNSt3__16__treeINS_12__value_typeIiNS_12basic_stringIcNS_11char_traitsIcEENS_9allocatorIcEEEEEENS_19__map_value_compareIiS8_NS_4lessIiEELb1EEENS5_IS8_EEE12__node_allocB8ne180100Ev, symObjAddr: 0x37BC, symBinAddr: 0x100005DA0, symSize: 0x28 }
  - { offsetInCU: 0x173DD, offset: 0x173DD, size: 0x8, addend: 0x0, symName: __ZNSt3__116allocator_traitsINS_9allocatorINS_11__tree_nodeINS_12__value_typeIiNS_12basic_stringIcNS_11char_traitsIcEENS1_IcEEEEEEPvEEEEE7destroyB8ne180100INS_4pairIKiS8_EEvvEEvRSC_PT_, symObjAddr: 0x37E4, symBinAddr: 0x100005DC8, symSize: 0x28 }
  - { offsetInCU: 0x17418, offset: 0x17418, size: 0x8, addend: 0x0, symName: __ZNSt3__122__tree_key_value_typesINS_12__value_typeIiNS_12basic_stringIcNS_11char_traitsIcEENS_9allocatorIcEEEEEEE9__get_ptrB8ne180100ERS8_, symObjAddr: 0x380C, symBinAddr: 0x100005DF0, symSize: 0x24 }
  - { offsetInCU: 0x1743C, offset: 0x1743C, size: 0x8, addend: 0x0, symName: __ZNSt3__116allocator_traitsINS_9allocatorINS_11__tree_nodeINS_12__value_typeIiNS_12basic_stringIcNS_11char_traitsIcEENS1_IcEEEEEEPvEEEEE10deallocateB8ne180100ERSC_PSB_m, symObjAddr: 0x3830, symBinAddr: 0x100005E14, symSize: 0x34 }
  - { offsetInCU: 0x1747E, offset: 0x1747E, size: 0x8, addend: 0x0, symName: __ZNSt3__117__compressed_pairINS_15__tree_end_nodeIPNS_16__tree_node_baseIPvEEEENS_9allocatorINS_11__tree_nodeINS_12__value_typeIiNS_12basic_stringIcNS_11char_traitsIcEENS7_IcEEEEEES3_EEEEE6secondB8ne180100Ev, symObjAddr: 0x3864, symBinAddr: 0x100005E48, symSize: 0x24 }
  - { offsetInCU: 0x174A4, offset: 0x174A4, size: 0x8, addend: 0x0, symName: __ZNSt3__122__compressed_pair_elemINS_9allocatorINS_11__tree_nodeINS_12__value_typeIiNS_12basic_stringIcNS_11char_traitsIcEENS1_IcEEEEEEPvEEEELi1ELb1EE5__getB8ne180100Ev, symObjAddr: 0x3888, symBinAddr: 0x100005E6C, symSize: 0x14 }
  - { offsetInCU: 0x174CA, offset: 0x174CA, size: 0x8, addend: 0x0, symName: __ZNSt3__14pairIKiNS_12basic_stringIcNS_11char_traitsIcEENS_9allocatorIcEEEEED1Ev, symObjAddr: 0x38C0, symBinAddr: 0x100005EA4, symSize: 0x2C }
  - { offsetInCU: 0x174F6, offset: 0x174F6, size: 0x8, addend: 0x0, symName: __ZNSt3__14pairIKiNS_12basic_stringIcNS_11char_traitsIcEENS_9allocatorIcEEEEED2Ev, symObjAddr: 0x38EC, symBinAddr: 0x100005ED0, symSize: 0x30 }
  - { offsetInCU: 0x17522, offset: 0x17522, size: 0x8, addend: 0x0, symName: __ZNSt3__112__value_typeIiNS_12basic_stringIcNS_11char_traitsIcEENS_9allocatorIcEEEEE11__get_valueB8ne180100Ev, symObjAddr: 0x391C, symBinAddr: 0x100005F00, symSize: 0x14 }
  - { offsetInCU: 0x17548, offset: 0x17548, size: 0x8, addend: 0x0, symName: __ZNSt3__19allocatorINS_11__tree_nodeINS_12__value_typeIiNS_12basic_stringIcNS_11char_traitsIcEENS0_IcEEEEEEPvEEE10deallocateB8ne180100EPSA_m, symObjAddr: 0x3930, symBinAddr: 0x100005F14, symSize: 0x70 }
  - { offsetInCU: 0x1758A, offset: 0x1758A, size: 0x8, addend: 0x0, symName: __ZNKSt3__16__treeINS_12__value_typeIiNS_12basic_stringIcNS_11char_traitsIcEENS_9allocatorIcEEEEEENS_19__map_value_compareIiS8_NS_4lessIiEELb1EEENS5_IS8_EEE10__end_nodeB8ne180100Ev, symObjAddr: 0x3A1C, symBinAddr: 0x100006000, symSize: 0x2C }
  - { offsetInCU: 0x175B0, offset: 0x175B0, size: 0x8, addend: 0x0, symName: __ZNKSt3__117__compressed_pairINS_15__tree_end_nodeIPNS_16__tree_node_baseIPvEEEENS_9allocatorINS_11__tree_nodeINS_12__value_typeIiNS_12basic_stringIcNS_11char_traitsIcEENS7_IcEEEEEES3_EEEEE5firstB8ne180100Ev, symObjAddr: 0x3A48, symBinAddr: 0x10000602C, symSize: 0x24 }
  - { offsetInCU: 0x175D6, offset: 0x175D6, size: 0x8, addend: 0x0, symName: __ZNKSt3__122__compressed_pair_elemINS_15__tree_end_nodeIPNS_16__tree_node_baseIPvEEEELi0ELb0EE5__getB8ne180100Ev, symObjAddr: 0x3A6C, symBinAddr: 0x100006050, symSize: 0x14 }
  - { offsetInCU: 0x175FC, offset: 0x175FC, size: 0x8, addend: 0x0, symName: __ZNSt3__16__treeINS_12__value_typeIiNS_12basic_stringIcNS_11char_traitsIcEENS_9allocatorIcEEEEEENS_19__map_value_compareIiS8_NS_4lessIiEELb1EEENS5_IS8_EEE12__find_equalIiEERPNS_16__tree_node_baseIPvEERPNS_15__tree_end_nodeISJ_EERKT_, symObjAddr: 0x3A80, symBinAddr: 0x100006064, symSize: 0x184 }
  - { offsetInCU: 0x17669, offset: 0x17669, size: 0x8, addend: 0x0, symName: __ZNSt3__13mapIiNS_12basic_stringIcNS_11char_traitsIcEENS_9allocatorIcEEEENS_4lessIiEENS4_INS_4pairIKiS6_EEEEE25__construct_node_with_keyERSA_, symObjAddr: 0x3C04, symBinAddr: 0x1000061E8, symSize: 0x144 }
  - { offsetInCU: 0x176BF, offset: 0x176BF, size: 0x8, addend: 0x0, symName: __ZNSt3__16__treeINS_12__value_typeIiNS_12basic_stringIcNS_11char_traitsIcEENS_9allocatorIcEEEEEENS_19__map_value_compareIiS8_NS_4lessIiEELb1EEENS5_IS8_EEE16__insert_node_atEPNS_15__tree_end_nodeIPNS_16__tree_node_baseIPvEEEERSJ_SJ_, symObjAddr: 0x3D48, symBinAddr: 0x10000632C, symSize: 0xCC }
  - { offsetInCU: 0x17714, offset: 0x17714, size: 0x8, addend: 0x0, symName: __ZNKSt3__110unique_ptrINS_11__tree_nodeINS_12__value_typeIiNS_12basic_stringIcNS_11char_traitsIcEENS_9allocatorIcEEEEEEPvEENS_21__map_node_destructorINS6_ISB_EEEEE3getB8ne180100Ev, symObjAddr: 0x3E14, symBinAddr: 0x1000063F8, symSize: 0x28 }
  - { offsetInCU: 0x1773A, offset: 0x1773A, size: 0x8, addend: 0x0, symName: __ZNSt3__110unique_ptrINS_11__tree_nodeINS_12__value_typeIiNS_12basic_stringIcNS_11char_traitsIcEENS_9allocatorIcEEEEEEPvEENS_21__map_node_destructorINS6_ISB_EEEEE7releaseB8ne180100Ev, symObjAddr: 0x3E3C, symBinAddr: 0x100006420, symSize: 0x44 }
  - { offsetInCU: 0x1776F, offset: 0x1776F, size: 0x8, addend: 0x0, symName: __ZNSt3__110unique_ptrINS_11__tree_nodeINS_12__value_typeIiNS_12basic_stringIcNS_11char_traitsIcEENS_9allocatorIcEEEEEEPvEENS_21__map_node_destructorINS6_ISB_EEEEED1B8ne180100Ev, symObjAddr: 0x3E80, symBinAddr: 0x100006464, symSize: 0x2C }
  - { offsetInCU: 0x17799, offset: 0x17799, size: 0x8, addend: 0x0, symName: __ZNKSt3__16__treeINS_12__value_typeIiNS_12basic_stringIcNS_11char_traitsIcEENS_9allocatorIcEEEEEENS_19__map_value_compareIiS8_NS_4lessIiEELb1EEENS5_IS8_EEE10__root_ptrB8ne180100Ev, symObjAddr: 0x3EAC, symBinAddr: 0x100006490, symSize: 0x24 }
  - { offsetInCU: 0x177BF, offset: 0x177BF, size: 0x8, addend: 0x0, symName: __ZNSt3__16__treeINS_12__value_typeIiNS_12basic_stringIcNS_11char_traitsIcEENS_9allocatorIcEEEEEENS_19__map_value_compareIiS8_NS_4lessIiEELb1EEENS5_IS8_EEE10value_compB8ne180100Ev, symObjAddr: 0x3ED0, symBinAddr: 0x1000064B4, symSize: 0x28 }
  - { offsetInCU: 0x177E5, offset: 0x177E5, size: 0x8, addend: 0x0, symName: __ZNKSt3__119__map_value_compareIiNS_12__value_typeIiNS_12basic_stringIcNS_11char_traitsIcEENS_9allocatorIcEEEEEENS_4lessIiEELb1EEclB8ne180100ERKiRKS8_, symObjAddr: 0x3EF8, symBinAddr: 0x1000064DC, symSize: 0x50 }
  - { offsetInCU: 0x17829, offset: 0x17829, size: 0x8, addend: 0x0, symName: __ZNKSt3__119__map_value_compareIiNS_12__value_typeIiNS_12basic_stringIcNS_11char_traitsIcEENS_9allocatorIcEEEEEENS_4lessIiEELb1EEclB8ne180100ERKS8_RKi, symObjAddr: 0x3F48, symBinAddr: 0x10000652C, symSize: 0x48 }
  - { offsetInCU: 0x1786D, offset: 0x1786D, size: 0x8, addend: 0x0, symName: __ZNSt3__117__compressed_pairImNS_19__map_value_compareIiNS_12__value_typeIiNS_12basic_stringIcNS_11char_traitsIcEENS_9allocatorIcEEEEEENS_4lessIiEELb1EEEE6secondB8ne180100Ev, symObjAddr: 0x3F90, symBinAddr: 0x100006574, symSize: 0x24 }
  - { offsetInCU: 0x17893, offset: 0x17893, size: 0x8, addend: 0x0, symName: __ZNSt3__122__compressed_pair_elemINS_19__map_value_compareIiNS_12__value_typeIiNS_12basic_stringIcNS_11char_traitsIcEENS_9allocatorIcEEEEEENS_4lessIiEELb1EEELi1ELb1EE5__getB8ne180100Ev, symObjAddr: 0x3FB4, symBinAddr: 0x100006598, symSize: 0x14 }
  - { offsetInCU: 0x178B9, offset: 0x178B9, size: 0x8, addend: 0x0, symName: __ZNKSt3__14lessIiEclB8ne180100ERKiS3_, symObjAddr: 0x3FC8, symBinAddr: 0x1000065AC, symSize: 0x34 }
  - { offsetInCU: 0x178FD, offset: 0x178FD, size: 0x8, addend: 0x0, symName: __ZNKSt3__112__value_typeIiNS_12basic_stringIcNS_11char_traitsIcEENS_9allocatorIcEEEEE11__get_valueB8ne180100Ev, symObjAddr: 0x3FFC, symBinAddr: 0x1000065E0, symSize: 0x14 }
  - { offsetInCU: 0x17923, offset: 0x17923, size: 0x8, addend: 0x0, symName: __ZNSt3__116allocator_traitsINS_9allocatorINS_11__tree_nodeINS_12__value_typeIiNS_12basic_stringIcNS_11char_traitsIcEENS1_IcEEEEEEPvEEEEE8allocateB8ne180100ERSC_m, symObjAddr: 0x4010, symBinAddr: 0x1000065F4, symSize: 0x2C }
  - { offsetInCU: 0x17956, offset: 0x17956, size: 0x8, addend: 0x0, symName: __ZNSt3__121__map_node_destructorINS_9allocatorINS_11__tree_nodeINS_12__value_typeIiNS_12basic_stringIcNS_11char_traitsIcEENS1_IcEEEEEEPvEEEEEC1B8ne180100ERSC_, symObjAddr: 0x403C, symBinAddr: 0x100006620, symSize: 0x34 }
  - { offsetInCU: 0x17994, offset: 0x17994, size: 0x8, addend: 0x0, symName: __ZNSt3__110unique_ptrINS_11__tree_nodeINS_12__value_typeIiNS_12basic_stringIcNS_11char_traitsIcEENS_9allocatorIcEEEEEEPvEENS_21__map_node_destructorINS6_ISB_EEEEEC1B8ne180100ILb1EvEEPSB_NS_16__dependent_typeINS_27__unique_ptr_deleter_sfinaeISE_EEXT_EE20__good_rval_ref_typeE, symObjAddr: 0x4070, symBinAddr: 0x100006654, symSize: 0x3C }
  - { offsetInCU: 0x179EA, offset: 0x179EA, size: 0x8, addend: 0x0, symName: __ZNSt3__116allocator_traitsINS_9allocatorINS_11__tree_nodeINS_12__value_typeIiNS_12basic_stringIcNS_11char_traitsIcEENS1_IcEEEEEEPvEEEEE9constructB8ne180100IKiJRSF_EvEEvRSC_PT_DpOT0_, symObjAddr: 0x40AC, symBinAddr: 0x100006690, symSize: 0x34 }
  - { offsetInCU: 0x17A41, offset: 0x17A41, size: 0x8, addend: 0x0, symName: __ZNKSt3__110unique_ptrINS_11__tree_nodeINS_12__value_typeIiNS_12basic_stringIcNS_11char_traitsIcEENS_9allocatorIcEEEEEEPvEENS_21__map_node_destructorINS6_ISB_EEEEEptB8ne180100Ev, symObjAddr: 0x40E0, symBinAddr: 0x1000066C4, symSize: 0x28 }
  - { offsetInCU: 0x17A67, offset: 0x17A67, size: 0x8, addend: 0x0, symName: __ZNSt3__110unique_ptrINS_11__tree_nodeINS_12__value_typeIiNS_12basic_stringIcNS_11char_traitsIcEENS_9allocatorIcEEEEEEPvEENS_21__map_node_destructorINS6_ISB_EEEEE11get_deleterB8ne180100Ev, symObjAddr: 0x4108, symBinAddr: 0x1000066EC, symSize: 0x24 }
  - { offsetInCU: 0x17A92, offset: 0x17A92, size: 0x8, addend: 0x0, symName: __ZNSt3__116allocator_traitsINS_9allocatorINS_11__tree_nodeINS_12__value_typeIiNS_12basic_stringIcNS_11char_traitsIcEENS1_IcEEEEEEPvEEEEE9constructB8ne180100IS8_JEvEEvRSC_PT_DpOT0_, symObjAddr: 0x412C, symBinAddr: 0x100006710, symSize: 0x2C }
  - { offsetInCU: 0x17AD4, offset: 0x17AD4, size: 0x8, addend: 0x0, symName: __ZNSt3__19allocatorINS_11__tree_nodeINS_12__value_typeIiNS_12basic_stringIcNS_11char_traitsIcEENS0_IcEEEEEEPvEEE8allocateB8ne180100Em, symObjAddr: 0x4158, symBinAddr: 0x10000673C, symSize: 0x84 }
  - { offsetInCU: 0x17B12, offset: 0x17B12, size: 0x8, addend: 0x0, symName: __ZNSt3__116allocator_traitsINS_9allocatorINS_11__tree_nodeINS_12__value_typeIiNS_12basic_stringIcNS_11char_traitsIcEENS1_IcEEEEEEPvEEEEE8max_sizeB8ne180100ISC_vEEmRKSC_, symObjAddr: 0x41DC, symBinAddr: 0x1000067C0, symSize: 0x24 }
  - { offsetInCU: 0x17B40, offset: 0x17B40, size: 0x8, addend: 0x0, symName: __ZNKSt3__19allocatorINS_11__tree_nodeINS_12__value_typeIiNS_12basic_stringIcNS_11char_traitsIcEENS0_IcEEEEEEPvEEE8max_sizeB8ne180100Ev, symObjAddr: 0x425C, symBinAddr: 0x100006840, symSize: 0x14 }
  - { offsetInCU: 0x17B66, offset: 0x17B66, size: 0x8, addend: 0x0, symName: __ZNSt3__121__map_node_destructorINS_9allocatorINS_11__tree_nodeINS_12__value_typeIiNS_12basic_stringIcNS_11char_traitsIcEENS1_IcEEEEEEPvEEEEEC2B8ne180100ERSC_, symObjAddr: 0x4294, symBinAddr: 0x100006878, symSize: 0x28 }
  - { offsetInCU: 0x17B9F, offset: 0x17B9F, size: 0x8, addend: 0x0, symName: __ZNSt3__110unique_ptrINS_11__tree_nodeINS_12__value_typeIiNS_12basic_stringIcNS_11char_traitsIcEENS_9allocatorIcEEEEEEPvEENS_21__map_node_destructorINS6_ISB_EEEEEC2B8ne180100ILb1EvEEPSB_NS_16__dependent_typeINS_27__unique_ptr_deleter_sfinaeISE_EEXT_EE20__good_rval_ref_typeE, symObjAddr: 0x42BC, symBinAddr: 0x1000068A0, symSize: 0x5C }
  - { offsetInCU: 0x17BF0, offset: 0x17BF0, size: 0x8, addend: 0x0, symName: __ZNSt3__117__compressed_pairIPNS_11__tree_nodeINS_12__value_typeIiNS_12basic_stringIcNS_11char_traitsIcEENS_9allocatorIcEEEEEEPvEENS_21__map_node_destructorINS6_ISB_EEEEEC1B8ne180100IRSC_SF_EEOT_OT0_, symObjAddr: 0x4318, symBinAddr: 0x1000068FC, symSize: 0x3C }
  - { offsetInCU: 0x17C48, offset: 0x17C48, size: 0x8, addend: 0x0, symName: __ZNSt3__117__compressed_pairIPNS_11__tree_nodeINS_12__value_typeIiNS_12basic_stringIcNS_11char_traitsIcEENS_9allocatorIcEEEEEEPvEENS_21__map_node_destructorINS6_ISB_EEEEEC2B8ne180100IRSC_SF_EEOT_OT0_, symObjAddr: 0x4354, symBinAddr: 0x100006938, symSize: 0x48 }
  - { offsetInCU: 0x17CA0, offset: 0x17CA0, size: 0x8, addend: 0x0, symName: __ZNSt3__122__compressed_pair_elemIPNS_11__tree_nodeINS_12__value_typeIiNS_12basic_stringIcNS_11char_traitsIcEENS_9allocatorIcEEEEEEPvEELi0ELb0EEC2B8ne180100IRSC_vEEOT_, symObjAddr: 0x439C, symBinAddr: 0x100006980, symSize: 0x24 }
  - { offsetInCU: 0x17CE2, offset: 0x17CE2, size: 0x8, addend: 0x0, symName: __ZNSt3__122__compressed_pair_elemINS_21__map_node_destructorINS_9allocatorINS_11__tree_nodeINS_12__value_typeIiNS_12basic_stringIcNS_11char_traitsIcEENS2_IcEEEEEEPvEEEEEELi1ELb0EEC2B8ne180100ISE_vEEOT_, symObjAddr: 0x43C0, symBinAddr: 0x1000069A4, symSize: 0x24 }
  - { offsetInCU: 0x17D24, offset: 0x17D24, size: 0x8, addend: 0x0, symName: __ZNSt3__19allocatorINS_11__tree_nodeINS_12__value_typeIiNS_12basic_stringIcNS_11char_traitsIcEENS0_IcEEEEEEPvEEE9constructB8ne180100IKiJRSD_EEEvPT_DpOT0_, symObjAddr: 0x43E4, symBinAddr: 0x1000069C8, symSize: 0x28 }
  - { offsetInCU: 0x17D7A, offset: 0x17D7A, size: 0x8, addend: 0x0, symName: __ZNKSt3__117__compressed_pairIPNS_11__tree_nodeINS_12__value_typeIiNS_12basic_stringIcNS_11char_traitsIcEENS_9allocatorIcEEEEEEPvEENS_21__map_node_destructorINS6_ISB_EEEEE5firstB8ne180100Ev, symObjAddr: 0x440C, symBinAddr: 0x1000069F0, symSize: 0x24 }
  - { offsetInCU: 0x17DA0, offset: 0x17DA0, size: 0x8, addend: 0x0, symName: __ZNKSt3__122__compressed_pair_elemIPNS_11__tree_nodeINS_12__value_typeIiNS_12basic_stringIcNS_11char_traitsIcEENS_9allocatorIcEEEEEEPvEELi0ELb0EE5__getB8ne180100Ev, symObjAddr: 0x4430, symBinAddr: 0x100006A14, symSize: 0x14 }
  - { offsetInCU: 0x17DC6, offset: 0x17DC6, size: 0x8, addend: 0x0, symName: __ZNSt3__117__compressed_pairIPNS_11__tree_nodeINS_12__value_typeIiNS_12basic_stringIcNS_11char_traitsIcEENS_9allocatorIcEEEEEEPvEENS_21__map_node_destructorINS6_ISB_EEEEE6secondB8ne180100Ev, symObjAddr: 0x4444, symBinAddr: 0x100006A28, symSize: 0x28 }
  - { offsetInCU: 0x17DEC, offset: 0x17DEC, size: 0x8, addend: 0x0, symName: __ZNSt3__122__compressed_pair_elemINS_21__map_node_destructorINS_9allocatorINS_11__tree_nodeINS_12__value_typeIiNS_12basic_stringIcNS_11char_traitsIcEENS2_IcEEEEEEPvEEEEEELi1ELb0EE5__getB8ne180100Ev, symObjAddr: 0x446C, symBinAddr: 0x100006A50, symSize: 0x14 }
  - { offsetInCU: 0x17E12, offset: 0x17E12, size: 0x8, addend: 0x0, symName: __ZNSt3__19allocatorINS_11__tree_nodeINS_12__value_typeIiNS_12basic_stringIcNS_11char_traitsIcEENS0_IcEEEEEEPvEEE9constructB8ne180100IS7_JEEEvPT_DpOT0_, symObjAddr: 0x4480, symBinAddr: 0x100006A64, symSize: 0x28 }
  - { offsetInCU: 0x17E54, offset: 0x17E54, size: 0x8, addend: 0x0, symName: __ZNSt3__16__treeINS_12__value_typeIiNS_12basic_stringIcNS_11char_traitsIcEENS_9allocatorIcEEEEEENS_19__map_value_compareIiS8_NS_4lessIiEELb1EEENS5_IS8_EEE4sizeB8ne180100Ev, symObjAddr: 0x47E8, symBinAddr: 0x100006DCC, symSize: 0x28 }
  - { offsetInCU: 0x17E7A, offset: 0x17E7A, size: 0x8, addend: 0x0, symName: __ZNKSt3__116__tree_node_baseIPvE15__parent_unsafeB8ne180100Ev, symObjAddr: 0x4810, symBinAddr: 0x100006DF4, symSize: 0x18 }
  - { offsetInCU: 0x17EA0, offset: 0x17EA0, size: 0x8, addend: 0x0, symName: __ZNSt3__116__tree_node_baseIPvE12__set_parentB8ne180100EPS2_, symObjAddr: 0x4A0C, symBinAddr: 0x100006FF0, symSize: 0x20 }
  - { offsetInCU: 0x17ED5, offset: 0x17ED5, size: 0x8, addend: 0x0, symName: __ZNSt3__117__compressed_pairImNS_19__map_value_compareIiNS_12__value_typeIiNS_12basic_stringIcNS_11char_traitsIcEENS_9allocatorIcEEEEEENS_4lessIiEELb1EEEE5firstB8ne180100Ev, symObjAddr: 0x4A2C, symBinAddr: 0x100007010, symSize: 0x24 }
  - { offsetInCU: 0x17EFB, offset: 0x17EFB, size: 0x8, addend: 0x0, symName: __ZNSt3__122__compressed_pair_elemImLi0ELb0EE5__getB8ne180100Ev, symObjAddr: 0x4A50, symBinAddr: 0x100007034, symSize: 0x14 }
  - { offsetInCU: 0x17F21, offset: 0x17F21, size: 0x8, addend: 0x0, symName: __ZNSt3__117__compressed_pairIPNS_11__tree_nodeINS_12__value_typeIiNS_12basic_stringIcNS_11char_traitsIcEENS_9allocatorIcEEEEEEPvEENS_21__map_node_destructorINS6_ISB_EEEEE5firstB8ne180100Ev, symObjAddr: 0x4A64, symBinAddr: 0x100007048, symSize: 0x24 }
  - { offsetInCU: 0x17F47, offset: 0x17F47, size: 0x8, addend: 0x0, symName: __ZNSt3__122__compressed_pair_elemIPNS_11__tree_nodeINS_12__value_typeIiNS_12basic_stringIcNS_11char_traitsIcEENS_9allocatorIcEEEEEEPvEELi0ELb0EE5__getB8ne180100Ev, symObjAddr: 0x4A88, symBinAddr: 0x10000706C, symSize: 0x14 }
  - { offsetInCU: 0x17F6D, offset: 0x17F6D, size: 0x8, addend: 0x0, symName: __ZNSt3__110unique_ptrINS_11__tree_nodeINS_12__value_typeIiNS_12basic_stringIcNS_11char_traitsIcEENS_9allocatorIcEEEEEEPvEENS_21__map_node_destructorINS6_ISB_EEEEED2B8ne180100Ev, symObjAddr: 0x4A9C, symBinAddr: 0x100007080, symSize: 0x30 }
  - { offsetInCU: 0x17F97, offset: 0x17F97, size: 0x8, addend: 0x0, symName: __ZNSt3__110unique_ptrINS_11__tree_nodeINS_12__value_typeIiNS_12basic_stringIcNS_11char_traitsIcEENS_9allocatorIcEEEEEEPvEENS_21__map_node_destructorINS6_ISB_EEEEE5resetB8ne180100EPSB_, symObjAddr: 0x4ACC, symBinAddr: 0x1000070B0, symSize: 0x78 }
  - { offsetInCU: 0x17FDB, offset: 0x17FDB, size: 0x8, addend: 0x0, symName: __ZNSt3__121__map_node_destructorINS_9allocatorINS_11__tree_nodeINS_12__value_typeIiNS_12basic_stringIcNS_11char_traitsIcEENS1_IcEEEEEEPvEEEEEclB8ne180100EPSB_, symObjAddr: 0x4B44, symBinAddr: 0x100007128, symSize: 0xE4 }
  - { offsetInCU: 0x18010, offset: 0x18010, size: 0x8, addend: 0x0, symName: __ZNSt3__116allocator_traitsINS_9allocatorINS_11__tree_nodeINS_12__value_typeIiNS_12basic_stringIcNS_11char_traitsIcEENS1_IcEEEEEEPvEEEEE7destroyB8ne180100IS8_vvEEvRSC_PT_, symObjAddr: 0x4C28, symBinAddr: 0x10000720C, symSize: 0x28 }
  - { offsetInCU: 0x1804B, offset: 0x1804B, size: 0x8, addend: 0x0, symName: __ZNSt3__116allocator_traitsINS_9allocatorINS_11__tree_nodeINS_12__value_typeIiNS_12basic_stringIcNS_11char_traitsIcEENS1_IcEEEEEEPvEEEEE7destroyB8ne180100IKivvEEvRSC_PT_, symObjAddr: 0x4C50, symBinAddr: 0x100007234, symSize: 0x28 }
  - { offsetInCU: 0x18086, offset: 0x18086, size: 0x8, addend: 0x0, symName: __ZNSt3__19basic_iosIcNS_11char_traitsIcEEEC2B8ne180100Ev, symObjAddr: 0x4CAC, symBinAddr: 0x100007290, symSize: 0x44 }
  - { offsetInCU: 0x180B0, offset: 0x180B0, size: 0x8, addend: 0x0, symName: __ZNSt3__113basic_istreamIcNS_11char_traitsIcEEEC2B8ne180100EPNS_15basic_streambufIcS2_EE, symObjAddr: 0x4CF0, symBinAddr: 0x1000072D4, symSize: 0x64 }
  - { offsetInCU: 0x180F5, offset: 0x180F5, size: 0x8, addend: 0x0, symName: __ZNSt3__19basic_iosIcNS_11char_traitsIcEEE8setstateB8ne180100Ej, symObjAddr: 0x4D54, symBinAddr: 0x100007338, symSize: 0x2C }
  - { offsetInCU: 0x1812A, offset: 0x1812A, size: 0x8, addend: 0x0, symName: __ZNSt3__18ios_baseC2B8ne180100Ev, symObjAddr: 0x4D80, symBinAddr: 0x100007364, symSize: 0x24 }
  - { offsetInCU: 0x18154, offset: 0x18154, size: 0x8, addend: 0x0, symName: __ZNSt3__19basic_iosIcNS_11char_traitsIcEEE4initB8ne180100EPNS_15basic_streambufIcS2_EE, symObjAddr: 0x4DA4, symBinAddr: 0x100007388, symSize: 0x44 }
  - { offsetInCU: 0x1818B, offset: 0x1818B, size: 0x8, addend: 0x0, symName: __ZNSt3__111char_traitsIcE3eofB8ne180100Ev, symObjAddr: 0x4DE8, symBinAddr: 0x1000073CC, symSize: 0x8 }
  - { offsetInCU: 0x1819F, offset: 0x1819F, size: 0x8, addend: 0x0, symName: __ZNSt3__18ios_base8setstateB8ne180100Ej, symObjAddr: 0x4DF0, symBinAddr: 0x1000073D4, symSize: 0x34 }
  - { offsetInCU: 0x181D6, offset: 0x181D6, size: 0x8, addend: 0x0, symName: __ZNSt3__112basic_stringIcNS_11char_traitsIcEENS_9allocatorIcEEEC2B8ne180100Ev, symObjAddr: 0x4E24, symBinAddr: 0x100007408, symSize: 0x40 }
  - { offsetInCU: 0x1820A, offset: 0x1820A, size: 0x8, addend: 0x0, symName: __ZNSt3__117__compressed_pairINS_12basic_stringIcNS_11char_traitsIcEENS_9allocatorIcEEE5__repES5_EC1B8ne180100INS_16__value_init_tagENS_18__default_init_tagEEEOT_OT0_, symObjAddr: 0x4E64, symBinAddr: 0x100007448, symSize: 0x3C }
  - { offsetInCU: 0x18262, offset: 0x18262, size: 0x8, addend: 0x0, symName: __ZNKSt3__112basic_stringIcNS_11char_traitsIcEENS_9allocatorIcEEE14__annotate_newB8ne180100Em, symObjAddr: 0x4EA0, symBinAddr: 0x100007484, symSize: 0x14 }
  - { offsetInCU: 0x18297, offset: 0x18297, size: 0x8, addend: 0x0, symName: __ZNSt3__117__compressed_pairINS_12basic_stringIcNS_11char_traitsIcEENS_9allocatorIcEEE5__repES5_EC2B8ne180100INS_16__value_init_tagENS_18__default_init_tagEEEOT_OT0_, symObjAddr: 0x4EB4, symBinAddr: 0x100007498, symSize: 0x3C }
  - { offsetInCU: 0x182EF, offset: 0x182EF, size: 0x8, addend: 0x0, symName: __ZNSt3__122__compressed_pair_elemINS_12basic_stringIcNS_11char_traitsIcEENS_9allocatorIcEEE5__repELi0ELb0EEC2B8ne180100ENS_16__value_init_tagE, symObjAddr: 0x4EF0, symBinAddr: 0x1000074D4, symSize: 0x20 }
  - { offsetInCU: 0x18324, offset: 0x18324, size: 0x8, addend: 0x0, symName: __ZNSt3__122__compressed_pair_elemINS_9allocatorIcEELi1ELb1EEC2B8ne180100ENS_18__default_init_tagE, symObjAddr: 0x4F10, symBinAddr: 0x1000074F4, symSize: 0x2C }
  - { offsetInCU: 0x18359, offset: 0x18359, size: 0x8, addend: 0x0, symName: __ZNSt3__19allocatorIcEC2B8ne180100Ev, symObjAddr: 0x4F3C, symBinAddr: 0x100007520, symSize: 0x2C }
  - { offsetInCU: 0x18383, offset: 0x18383, size: 0x8, addend: 0x0, symName: __ZNSt3__116__non_trivial_ifILb1ENS_9allocatorIcEEEC2B8ne180100Ev, symObjAddr: 0x4F68, symBinAddr: 0x10000754C, symSize: 0x14 }
  - { offsetInCU: 0x183AD, offset: 0x183AD, size: 0x8, addend: 0x0, symName: __ZNSt3__16vectorI7FlowLogNS_9allocatorIS1_EEEC2B8ne180100Ev, symObjAddr: 0x4F7C, symBinAddr: 0x100007560, symSize: 0x44 }
  - { offsetInCU: 0x183DC, offset: 0x183DC, size: 0x8, addend: 0x0, symName: __ZNSt3__117__compressed_pairIP7FlowLogNS_9allocatorIS1_EEEC1B8ne180100IDnNS_18__default_init_tagEEEOT_OT0_, symObjAddr: 0x4FC0, symBinAddr: 0x1000075A4, symSize: 0x3C }
  - { offsetInCU: 0x18434, offset: 0x18434, size: 0x8, addend: 0x0, symName: __ZNSt3__117__compressed_pairIP7FlowLogNS_9allocatorIS1_EEEC2B8ne180100IDnNS_18__default_init_tagEEEOT_OT0_, symObjAddr: 0x4FFC, symBinAddr: 0x1000075E0, symSize: 0x40 }
  - { offsetInCU: 0x1848C, offset: 0x1848C, size: 0x8, addend: 0x0, symName: __ZNSt3__122__compressed_pair_elemIP7FlowLogLi0ELb0EEC2B8ne180100IDnvEEOT_, symObjAddr: 0x503C, symBinAddr: 0x100007620, symSize: 0x1C }
  - { offsetInCU: 0x184CE, offset: 0x184CE, size: 0x8, addend: 0x0, symName: __ZNSt3__122__compressed_pair_elemINS_9allocatorI7FlowLogEELi1ELb1EEC2B8ne180100ENS_18__default_init_tagE, symObjAddr: 0x5058, symBinAddr: 0x10000763C, symSize: 0x2C }
  - { offsetInCU: 0x18503, offset: 0x18503, size: 0x8, addend: 0x0, symName: __ZNSt3__19allocatorI7FlowLogEC2B8ne180100Ev, symObjAddr: 0x5084, symBinAddr: 0x100007668, symSize: 0x2C }
  - { offsetInCU: 0x1852D, offset: 0x1852D, size: 0x8, addend: 0x0, symName: __ZNSt3__116__non_trivial_ifILb1ENS_9allocatorI7FlowLogEEEC2B8ne180100Ev, symObjAddr: 0x50B0, symBinAddr: 0x100007694, symSize: 0x14 }
  - { offsetInCU: 0x18557, offset: 0x18557, size: 0x8, addend: 0x0, symName: __ZNSt3__16vectorI7FlowLogNS_9allocatorIS1_EEED2B8ne180100Ev, symObjAddr: 0x50C4, symBinAddr: 0x1000076A8, symSize: 0x3C }
  - { offsetInCU: 0x18581, offset: 0x18581, size: 0x8, addend: 0x0, symName: __ZNSt3__16vectorI7FlowLogNS_9allocatorIS1_EEE16__destroy_vectorC1B8ne180100ERS4_, symObjAddr: 0x5100, symBinAddr: 0x1000076E4, symSize: 0x34 }
  - { offsetInCU: 0x185BA, offset: 0x185BA, size: 0x8, addend: 0x0, symName: __ZNSt3__16vectorI7FlowLogNS_9allocatorIS1_EEE16__destroy_vectorclB8ne180100Ev, symObjAddr: 0x5134, symBinAddr: 0x100007718, symSize: 0x90 }
  - { offsetInCU: 0x185E0, offset: 0x185E0, size: 0x8, addend: 0x0, symName: __ZNSt3__16vectorI7FlowLogNS_9allocatorIS1_EEE16__destroy_vectorC2B8ne180100ERS4_, symObjAddr: 0x51C4, symBinAddr: 0x1000077A8, symSize: 0x20 }
  - { offsetInCU: 0x18619, offset: 0x18619, size: 0x8, addend: 0x0, symName: __ZNSt3__16vectorI7FlowLogNS_9allocatorIS1_EEE7__clearB8ne180100Ev, symObjAddr: 0x51E4, symBinAddr: 0x1000077C8, symSize: 0x28 }
  - { offsetInCU: 0x1863F, offset: 0x1863F, size: 0x8, addend: 0x0, symName: __ZNKSt3__16vectorI7FlowLogNS_9allocatorIS1_EEE17__annotate_deleteB8ne180100Ev, symObjAddr: 0x520C, symBinAddr: 0x1000077F0, symSize: 0x10 }
  - { offsetInCU: 0x18665, offset: 0x18665, size: 0x8, addend: 0x0, symName: __ZNSt3__116allocator_traitsINS_9allocatorI7FlowLogEEE10deallocateB8ne180100ERS3_PS2_m, symObjAddr: 0x521C, symBinAddr: 0x100007800, symSize: 0x34 }
  - { offsetInCU: 0x186A7, offset: 0x186A7, size: 0x8, addend: 0x0, symName: __ZNSt3__16vectorI7FlowLogNS_9allocatorIS1_EEE7__allocB8ne180100Ev, symObjAddr: 0x5250, symBinAddr: 0x100007834, symSize: 0x28 }
  - { offsetInCU: 0x186CD, offset: 0x186CD, size: 0x8, addend: 0x0, symName: __ZNKSt3__16vectorI7FlowLogNS_9allocatorIS1_EEE8capacityB8ne180100Ev, symObjAddr: 0x5278, symBinAddr: 0x10000785C, symSize: 0x40 }
  - { offsetInCU: 0x186F3, offset: 0x186F3, size: 0x8, addend: 0x0, symName: __ZNSt3__16vectorI7FlowLogNS_9allocatorIS1_EEE22__base_destruct_at_endB8ne180100EPS1_, symObjAddr: 0x52B8, symBinAddr: 0x10000789C, symSize: 0xA0 }
  - { offsetInCU: 0x18737, offset: 0x18737, size: 0x8, addend: 0x0, symName: __ZNSt3__116allocator_traitsINS_9allocatorI7FlowLogEEE7destroyB8ne180100IS2_vEEvRS3_PT_, symObjAddr: 0x5358, symBinAddr: 0x10000793C, symSize: 0x2C }
  - { offsetInCU: 0x18774, offset: 0x18774, size: 0x8, addend: 0x0, symName: __ZNSt3__19allocatorI7FlowLogE7destroyB8ne180100EPS1_, symObjAddr: 0x5398, symBinAddr: 0x10000797C, symSize: 0x28 }
  - { offsetInCU: 0x187A8, offset: 0x187A8, size: 0x8, addend: 0x0, symName: __ZNSt3__19allocatorI7FlowLogE10deallocateB8ne180100EPS1_m, symObjAddr: 0x53C0, symBinAddr: 0x1000079A4, symSize: 0x74 }
  - { offsetInCU: 0x187EA, offset: 0x187EA, size: 0x8, addend: 0x0, symName: __ZNSt3__117__compressed_pairIP7FlowLogNS_9allocatorIS1_EEE6secondB8ne180100Ev, symObjAddr: 0x5434, symBinAddr: 0x100007A18, symSize: 0x24 }
  - { offsetInCU: 0x18810, offset: 0x18810, size: 0x8, addend: 0x0, symName: __ZNSt3__122__compressed_pair_elemINS_9allocatorI7FlowLogEELi1ELb1EE5__getB8ne180100Ev, symObjAddr: 0x5458, symBinAddr: 0x100007A3C, symSize: 0x14 }
  - { offsetInCU: 0x18836, offset: 0x18836, size: 0x8, addend: 0x0, symName: __ZNKSt3__16vectorI7FlowLogNS_9allocatorIS1_EEE9__end_capB8ne180100Ev, symObjAddr: 0x546C, symBinAddr: 0x100007A50, symSize: 0x28 }
  - { offsetInCU: 0x1885C, offset: 0x1885C, size: 0x8, addend: 0x0, symName: __ZNKSt3__117__compressed_pairIP7FlowLogNS_9allocatorIS1_EEE5firstB8ne180100Ev, symObjAddr: 0x5494, symBinAddr: 0x100007A78, symSize: 0x24 }
  - { offsetInCU: 0x18882, offset: 0x18882, size: 0x8, addend: 0x0, symName: __ZNKSt3__122__compressed_pair_elemIP7FlowLogLi0ELb0EE5__getB8ne180100Ev, symObjAddr: 0x54B8, symBinAddr: 0x100007A9C, symSize: 0x14 }
  - { offsetInCU: 0x188A8, offset: 0x188A8, size: 0x8, addend: 0x0, symName: __ZNKSt3__19basic_iosIcNS_11char_traitsIcEEE5widenB8ne180100Ec, symObjAddr: 0x54CC, symBinAddr: 0x100007AB0, symSize: 0x8C }
  - { offsetInCU: 0x1890C, offset: 0x1890C, size: 0x8, addend: 0x0, symName: __ZNKSt3__15ctypeIcE5widenB8ne180100Ec, symObjAddr: 0x5584, symBinAddr: 0x100007B68, symSize: 0x38 }
  - { offsetInCU: 0x18941, offset: 0x18941, size: 0x8, addend: 0x0, symName: __ZNKSt3__19basic_iosIcNS_11char_traitsIcEEE4failB8ne180100Ev, symObjAddr: 0x55BC, symBinAddr: 0x100007BA0, symSize: 0x28 }
  - { offsetInCU: 0x18967, offset: 0x18967, size: 0x8, addend: 0x0, symName: __ZNKSt3__18ios_base4failB8ne180100Ev, symObjAddr: 0x55E4, symBinAddr: 0x100007BC8, symSize: 0x28 }
  - { offsetInCU: 0x1898F, offset: 0x1898F, size: 0x8, addend: 0x0, symName: __ZNSt3__115basic_stringbufIcNS_11char_traitsIcEENS_9allocatorIcEEEC1B8ne180100ERKNS_12basic_stringIcS2_S4_EEj, symObjAddr: 0x560C, symBinAddr: 0x100007BF0, symSize: 0x3C }
  - { offsetInCU: 0x189D7, offset: 0x189D7, size: 0x8, addend: 0x0, symName: __ZNSt3__115basic_stringbufIcNS_11char_traitsIcEENS_9allocatorIcEEEC2B8ne180100ERKNS_12basic_stringIcS2_S4_EEj, symObjAddr: 0x5648, symBinAddr: 0x100007C2C, symSize: 0xD8 }
  - { offsetInCU: 0x18A1F, offset: 0x18A1F, size: 0x8, addend: 0x0, symName: __ZNKSt3__112basic_stringIcNS_11char_traitsIcEENS_9allocatorIcEEE13get_allocatorB8ne180100Ev, symObjAddr: 0x5720, symBinAddr: 0x100007D04, symSize: 0x24 }
  - { offsetInCU: 0x18A45, offset: 0x18A45, size: 0x8, addend: 0x0, symName: __ZNSt3__112basic_stringIcNS_11char_traitsIcEENS_9allocatorIcEEEC1B8ne180100ERKS4_, symObjAddr: 0x5744, symBinAddr: 0x100007D28, symSize: 0x34 }
  - { offsetInCU: 0x18A7E, offset: 0x18A7E, size: 0x8, addend: 0x0, symName: __ZNKSt3__112basic_stringIcNS_11char_traitsIcEENS_9allocatorIcEEE7__allocB8ne180100Ev, symObjAddr: 0x5778, symBinAddr: 0x100007D5C, symSize: 0x24 }
  - { offsetInCU: 0x18AA4, offset: 0x18AA4, size: 0x8, addend: 0x0, symName: __ZNKSt3__117__compressed_pairINS_12basic_stringIcNS_11char_traitsIcEENS_9allocatorIcEEE5__repES5_E6secondB8ne180100Ev, symObjAddr: 0x579C, symBinAddr: 0x100007D80, symSize: 0x24 }
  - { offsetInCU: 0x18ACA, offset: 0x18ACA, size: 0x8, addend: 0x0, symName: __ZNKSt3__122__compressed_pair_elemINS_9allocatorIcEELi1ELb1EE5__getB8ne180100Ev, symObjAddr: 0x57C0, symBinAddr: 0x100007DA4, symSize: 0x14 }
  - { offsetInCU: 0x18AF0, offset: 0x18AF0, size: 0x8, addend: 0x0, symName: __ZNSt3__112basic_stringIcNS_11char_traitsIcEENS_9allocatorIcEEEC2B8ne180100ERKS4_, symObjAddr: 0x57D4, symBinAddr: 0x100007DB8, symSize: 0x44 }
  - { offsetInCU: 0x18B29, offset: 0x18B29, size: 0x8, addend: 0x0, symName: __ZNSt3__117__compressed_pairINS_12basic_stringIcNS_11char_traitsIcEENS_9allocatorIcEEE5__repES5_EC1B8ne180100INS_16__value_init_tagERKS5_EEOT_OT0_, symObjAddr: 0x5818, symBinAddr: 0x100007DFC, symSize: 0x3C }
  - { offsetInCU: 0x18B81, offset: 0x18B81, size: 0x8, addend: 0x0, symName: __ZNSt3__117__compressed_pairINS_12basic_stringIcNS_11char_traitsIcEENS_9allocatorIcEEE5__repES5_EC2B8ne180100INS_16__value_init_tagERKS5_EEOT_OT0_, symObjAddr: 0x5854, symBinAddr: 0x100007E38, symSize: 0x40 }
  - { offsetInCU: 0x18BD9, offset: 0x18BD9, size: 0x8, addend: 0x0, symName: __ZNSt3__122__compressed_pair_elemINS_9allocatorIcEELi1ELb1EEC2B8ne180100IRKS2_vEEOT_, symObjAddr: 0x5894, symBinAddr: 0x100007E78, symSize: 0x18 }
  - { offsetInCU: 0x18C39, offset: 0x18C39, size: 0x8, addend: 0x0, symName: __ZNKSt3__113basic_istreamIcNS_11char_traitsIcEEE6sentrycvbB8ne180100Ev, symObjAddr: 0x58AC, symBinAddr: 0x100007E90, symSize: 0x1C }
  - { offsetInCU: 0x18C5F, offset: 0x18C5F, size: 0x8, addend: 0x0, symName: __ZNSt3__112basic_stringIcNS_11char_traitsIcEENS_9allocatorIcEEE5clearB8ne180100Ev, symObjAddr: 0x58C8, symBinAddr: 0x100007EAC, symSize: 0x94 }
  - { offsetInCU: 0x18C96, offset: 0x18C96, size: 0x8, addend: 0x0, symName: __ZNKSt3__18ios_base5widthB8ne180100Ev, symObjAddr: 0x595C, symBinAddr: 0x100007F40, symSize: 0x18 }
  - { offsetInCU: 0x18CBE, offset: 0x18CBE, size: 0x8, addend: 0x0, symName: __ZNKSt3__112basic_stringIcNS_11char_traitsIcEENS_9allocatorIcEEE8max_sizeB8ne180100Ev, symObjAddr: 0x5974, symBinAddr: 0x100007F58, symSize: 0xAC }
  - { offsetInCU: 0x18D10, offset: 0x18D10, size: 0x8, addend: 0x0, symName: __ZNSt3__114numeric_limitsIlE3maxB8ne180100Ev, symObjAddr: 0x5A20, symBinAddr: 0x100008004, symSize: 0x14 }
  - { offsetInCU: 0x18D24, offset: 0x18D24, size: 0x8, addend: 0x0, symName: __ZNKSt3__19basic_iosIcNS_11char_traitsIcEEE5rdbufB8ne180100Ev, symObjAddr: 0x5A34, symBinAddr: 0x100008018, symSize: 0x24 }
  - { offsetInCU: 0x18D4C, offset: 0x18D4C, size: 0x8, addend: 0x0, symName: __ZNSt3__115basic_streambufIcNS_11char_traitsIcEEE5sgetcB8ne180100Ev, symObjAddr: 0x5A58, symBinAddr: 0x10000803C, symSize: 0x70 }
  - { offsetInCU: 0x18D72, offset: 0x18D72, size: 0x8, addend: 0x0, symName: __ZNSt3__111char_traitsIcE11eq_int_typeB8ne180100Eii, symObjAddr: 0x5AC8, symBinAddr: 0x1000080AC, symSize: 0x28 }
  - { offsetInCU: 0x18DA5, offset: 0x18DA5, size: 0x8, addend: 0x0, symName: __ZNSt3__111char_traitsIcE12to_char_typeB8ne180100Ei, symObjAddr: 0x5AF0, symBinAddr: 0x1000080D4, symSize: 0x18 }
  - { offsetInCU: 0x18DC9, offset: 0x18DC9, size: 0x8, addend: 0x0, symName: __ZNKSt3__15ctypeIcE2isB8ne180100Ejc, symObjAddr: 0x5B08, symBinAddr: 0x1000080EC, symSize: 0x7C }
  - { offsetInCU: 0x18E0D, offset: 0x18E0D, size: 0x8, addend: 0x0, symName: __ZNSt3__115basic_streambufIcNS_11char_traitsIcEEE6sbumpcB8ne180100Ev, symObjAddr: 0x5B84, symBinAddr: 0x100008168, symSize: 0x78 }
  - { offsetInCU: 0x18E33, offset: 0x18E33, size: 0x8, addend: 0x0, symName: __ZNSt3__18ios_base5widthB8ne180100El, symObjAddr: 0x5BFC, symBinAddr: 0x1000081E0, symSize: 0x2C }
  - { offsetInCU: 0x18E79, offset: 0x18E79, size: 0x8, addend: 0x0, symName: __ZNSt3__18ios_base18__setstate_nothrowB8ne180100Ej, symObjAddr: 0x5C28, symBinAddr: 0x10000820C, symSize: 0x64 }
  - { offsetInCU: 0x18EAE, offset: 0x18EAE, size: 0x8, addend: 0x0, symName: __ZNKSt3__19basic_iosIcNS_11char_traitsIcEEE10exceptionsB8ne180100Ev, symObjAddr: 0x5C8C, symBinAddr: 0x100008270, symSize: 0x24 }
  - { offsetInCU: 0x18ED4, offset: 0x18ED4, size: 0x8, addend: 0x0, symName: __ZNSt3__111char_traitsIcE6assignB8ne180100ERcRKc, symObjAddr: 0x5CB0, symBinAddr: 0x100008294, symSize: 0x24 }
  - { offsetInCU: 0x18F05, offset: 0x18F05, size: 0x8, addend: 0x0, symName: __ZNSt3__112basic_stringIcNS_11char_traitsIcEENS_9allocatorIcEEE15__set_long_sizeB8ne180100Em, symObjAddr: 0x5CD4, symBinAddr: 0x1000082B8, symSize: 0x38 }
  - { offsetInCU: 0x18F3A, offset: 0x18F3A, size: 0x8, addend: 0x0, symName: __ZNSt3__112basic_stringIcNS_11char_traitsIcEENS_9allocatorIcEEE16__set_short_sizeB8ne180100Em, symObjAddr: 0x5D0C, symBinAddr: 0x1000082F0, symSize: 0x78 }
  - { offsetInCU: 0x18F6F, offset: 0x18F6F, size: 0x8, addend: 0x0, symName: __ZNKSt3__112basic_stringIcNS_11char_traitsIcEENS_9allocatorIcEEE17__annotate_shrinkB8ne180100Em, symObjAddr: 0x5D84, symBinAddr: 0x100008368, symSize: 0x14 }
  - { offsetInCU: 0x18FAE, offset: 0x18FAE, size: 0x8, addend: 0x0, symName: __ZNSt3__116allocator_traitsINS_9allocatorIcEEE8max_sizeB8ne180100IS2_vEEmRKS2_, symObjAddr: 0x5D98, symBinAddr: 0x10000837C, symSize: 0x24 }
  - { offsetInCU: 0x18FDC, offset: 0x18FDC, size: 0x8, addend: 0x0, symName: __ZNSt3__114numeric_limitsImE3maxB8ne180100Ev, symObjAddr: 0x5DBC, symBinAddr: 0x1000083A0, symSize: 0x14 }
  - { offsetInCU: 0x18FF0, offset: 0x18FF0, size: 0x8, addend: 0x0, symName: __ZNKSt3__19allocatorIcE8max_sizeB8ne180100Ev, symObjAddr: 0x5DD0, symBinAddr: 0x1000083B4, symSize: 0x14 }
  - { offsetInCU: 0x19016, offset: 0x19016, size: 0x8, addend: 0x0, symName: __ZNSt3__123__libcpp_numeric_limitsImLb1EE3maxB8ne180100Ev, symObjAddr: 0x5DE4, symBinAddr: 0x1000083C8, symSize: 0x8 }
  - { offsetInCU: 0x1902A, offset: 0x1902A, size: 0x8, addend: 0x0, symName: __ZNSt3__123__libcpp_numeric_limitsIlLb1EE3maxB8ne180100Ev, symObjAddr: 0x5DEC, symBinAddr: 0x1000083D0, symSize: 0x8 }
  - { offsetInCU: 0x1903E, offset: 0x1903E, size: 0x8, addend: 0x0, symName: __ZNKSt3__18ios_base5rdbufB8ne180100Ev, symObjAddr: 0x5DF4, symBinAddr: 0x1000083D8, symSize: 0x18 }
  - { offsetInCU: 0x19064, offset: 0x19064, size: 0x8, addend: 0x0, symName: __ZNSt3__111char_traitsIcE11to_int_typeB8ne180100Ec, symObjAddr: 0x5E0C, symBinAddr: 0x1000083F0, symSize: 0x14 }
  - { offsetInCU: 0x19087, offset: 0x19087, size: 0x8, addend: 0x0, symName: __Z7isasciii, symObjAddr: 0x5E20, symBinAddr: 0x100008404, symSize: 0x24 }
  - { offsetInCU: 0x190B4, offset: 0x190B4, size: 0x8, addend: 0x0, symName: __ZNKSt3__18ios_base10exceptionsB8ne180100Ev, symObjAddr: 0x5E44, symBinAddr: 0x100008428, symSize: 0x18 }
  - { offsetInCU: 0x190DC, offset: 0x190DC, size: 0x8, addend: 0x0, symName: __ZNSt3__16vectorI7FlowLogNS_9allocatorIS1_EEE9__end_capB8ne180100Ev, symObjAddr: 0x5E5C, symBinAddr: 0x100008440, symSize: 0x28 }
  - { offsetInCU: 0x19102, offset: 0x19102, size: 0x8, addend: 0x0, symName: __ZNSt3__16vectorI7FlowLogNS_9allocatorIS1_EEE22__construct_one_at_endB8ne180100IJRKS1_EEEvDpOT_, symObjAddr: 0x5E84, symBinAddr: 0x100008468, symSize: 0x98 }
  - { offsetInCU: 0x19151, offset: 0x19151, size: 0x8, addend: 0x0, symName: __ZNSt3__16vectorI7FlowLogNS_9allocatorIS1_EEE21__push_back_slow_pathIRKS1_EEPS1_OT_, symObjAddr: 0x5F1C, symBinAddr: 0x100008500, symSize: 0xF0 }
  - { offsetInCU: 0x191AF, offset: 0x191AF, size: 0x8, addend: 0x0, symName: __ZNSt3__117__compressed_pairIP7FlowLogNS_9allocatorIS1_EEE5firstB8ne180100Ev, symObjAddr: 0x600C, symBinAddr: 0x1000085F0, symSize: 0x24 }
  - { offsetInCU: 0x191D5, offset: 0x191D5, size: 0x8, addend: 0x0, symName: __ZNSt3__122__compressed_pair_elemIP7FlowLogLi0ELb0EE5__getB8ne180100Ev, symObjAddr: 0x6030, symBinAddr: 0x100008614, symSize: 0x14 }
  - { offsetInCU: 0x19214, offset: 0x19214, size: 0x8, addend: 0x0, symName: __ZNSt3__16vectorI7FlowLogNS_9allocatorIS1_EEE21_ConstructTransactionC1B8ne180100ERS4_m, symObjAddr: 0x6044, symBinAddr: 0x100008628, symSize: 0x3C }
  - { offsetInCU: 0x1925C, offset: 0x1925C, size: 0x8, addend: 0x0, symName: __ZNSt3__116allocator_traitsINS_9allocatorI7FlowLogEEE9constructB8ne180100IS2_JRKS2_EvEEvRS3_PT_DpOT0_, symObjAddr: 0x6080, symBinAddr: 0x100008664, symSize: 0x34 }
  - { offsetInCU: 0x192B3, offset: 0x192B3, size: 0x8, addend: 0x0, symName: __ZNSt3__16vectorI7FlowLogNS_9allocatorIS1_EEE21_ConstructTransactionD1B8ne180100Ev, symObjAddr: 0x60B4, symBinAddr: 0x100008698, symSize: 0x2C }
  - { offsetInCU: 0x192DD, offset: 0x192DD, size: 0x8, addend: 0x0, symName: __ZNSt3__16vectorI7FlowLogNS_9allocatorIS1_EEE21_ConstructTransactionC2B8ne180100ERS4_m, symObjAddr: 0x60E0, symBinAddr: 0x1000086C4, symSize: 0x4C }
  - { offsetInCU: 0x19325, offset: 0x19325, size: 0x8, addend: 0x0, symName: __ZNSt3__19allocatorI7FlowLogE9constructB8ne180100IS1_JRKS1_EEEvPT_DpOT0_, symObjAddr: 0x612C, symBinAddr: 0x100008710, symSize: 0x30 }
  - { offsetInCU: 0x1937B, offset: 0x1937B, size: 0x8, addend: 0x0, symName: __ZN7FlowLogC1ERKS_, symObjAddr: 0x615C, symBinAddr: 0x100008740, symSize: 0x34 }
  - { offsetInCU: 0x193B0, offset: 0x193B0, size: 0x8, addend: 0x0, symName: __ZN7FlowLogC2ERKS_, symObjAddr: 0x6190, symBinAddr: 0x100008774, symSize: 0x198 }
  - { offsetInCU: 0x193E5, offset: 0x193E5, size: 0x8, addend: 0x0, symName: __ZNSt3__16vectorI7FlowLogNS_9allocatorIS1_EEE21_ConstructTransactionD2B8ne180100Ev, symObjAddr: 0x6328, symBinAddr: 0x10000890C, symSize: 0x20 }
  - { offsetInCU: 0x1940F, offset: 0x1940F, size: 0x8, addend: 0x0, symName: __ZNKSt3__16vectorI7FlowLogNS_9allocatorIS1_EEE11__recommendB8ne180100Em, symObjAddr: 0x6348, symBinAddr: 0x10000892C, symSize: 0xB4 }
  - { offsetInCU: 0x19464, offset: 0x19464, size: 0x8, addend: 0x0, symName: __ZNSt3__114__split_bufferI7FlowLogRNS_9allocatorIS1_EEEC1EmmS4_, symObjAddr: 0x63FC, symBinAddr: 0x1000089E0, symSize: 0x44 }
  - { offsetInCU: 0x194BA, offset: 0x194BA, size: 0x8, addend: 0x0, symName: __ZNSt3__114__split_bufferI7FlowLogRNS_9allocatorIS1_EEED1Ev, symObjAddr: 0x6550, symBinAddr: 0x100008B34, symSize: 0x2C }
  - { offsetInCU: 0x194E6, offset: 0x194E6, size: 0x8, addend: 0x0, symName: __ZNKSt3__16vectorI7FlowLogNS_9allocatorIS1_EEE8max_sizeEv, symObjAddr: 0x657C, symBinAddr: 0x100008B60, symSize: 0x74 }
  - { offsetInCU: 0x1950E, offset: 0x1950E, size: 0x8, addend: 0x0, symName: __ZNKSt3__16vectorI7FlowLogNS_9allocatorIS1_EEE20__throw_length_errorB8ne180100Ev, symObjAddr: 0x65F0, symBinAddr: 0x100008BD4, symSize: 0x1C }
  - { offsetInCU: 0x1953E, offset: 0x1953E, size: 0x8, addend: 0x0, symName: __ZNSt3__116allocator_traitsINS_9allocatorI7FlowLogEEE8max_sizeB8ne180100IS3_vEEmRKS3_, symObjAddr: 0x6664, symBinAddr: 0x100008C48, symSize: 0x24 }
  - { offsetInCU: 0x1956C, offset: 0x1956C, size: 0x8, addend: 0x0, symName: __ZNKSt3__16vectorI7FlowLogNS_9allocatorIS1_EEE7__allocB8ne180100Ev, symObjAddr: 0x6688, symBinAddr: 0x100008C6C, symSize: 0x28 }
  - { offsetInCU: 0x1959C, offset: 0x1959C, size: 0x8, addend: 0x0, symName: __ZNKSt3__16__lessIvvEclB8ne180100ImmEEbRKT_RKT0_, symObjAddr: 0x6704, symBinAddr: 0x100008CE8, symSize: 0x34 }
  - { offsetInCU: 0x195F0, offset: 0x195F0, size: 0x8, addend: 0x0, symName: __ZNKSt3__19allocatorI7FlowLogE8max_sizeB8ne180100Ev, symObjAddr: 0x6738, symBinAddr: 0x100008D1C, symSize: 0x18 }
  - { offsetInCU: 0x19616, offset: 0x19616, size: 0x8, addend: 0x0, symName: __ZNKSt3__117__compressed_pairIP7FlowLogNS_9allocatorIS1_EEE6secondB8ne180100Ev, symObjAddr: 0x6750, symBinAddr: 0x100008D34, symSize: 0x24 }
  - { offsetInCU: 0x1963C, offset: 0x1963C, size: 0x8, addend: 0x0, symName: __ZNKSt3__122__compressed_pair_elemINS_9allocatorI7FlowLogEELi1ELb1EE5__getB8ne180100Ev, symObjAddr: 0x6774, symBinAddr: 0x100008D58, symSize: 0x14 }
  - { offsetInCU: 0x19662, offset: 0x19662, size: 0x8, addend: 0x0, symName: __ZNSt12length_errorC1B8ne180100EPKc, symObjAddr: 0x67EC, symBinAddr: 0x100008DD0, symSize: 0x34 }
  - { offsetInCU: 0x1969A, offset: 0x1969A, size: 0x8, addend: 0x0, symName: __ZNSt12length_errorC2B8ne180100EPKc, symObjAddr: 0x6820, symBinAddr: 0x100008E04, symSize: 0x4C }
  - { offsetInCU: 0x196D2, offset: 0x196D2, size: 0x8, addend: 0x0, symName: __ZNSt3__114__split_bufferI7FlowLogRNS_9allocatorIS1_EEEC2EmmS4_, symObjAddr: 0x68C0, symBinAddr: 0x100008EA4, symSize: 0xE0 }
  - { offsetInCU: 0x19745, offset: 0x19745, size: 0x8, addend: 0x0, symName: __ZNSt3__117__compressed_pairIP7FlowLogRNS_9allocatorIS1_EEEC1B8ne180100IDnS5_EEOT_OT0_, symObjAddr: 0x69A0, symBinAddr: 0x100008F84, symSize: 0x3C }
  - { offsetInCU: 0x1979D, offset: 0x1979D, size: 0x8, addend: 0x0, symName: __ZNSt3__114__split_bufferI7FlowLogRNS_9allocatorIS1_EEE7__allocB8ne180100Ev, symObjAddr: 0x6A1C, symBinAddr: 0x100009000, symSize: 0x28 }
  - { offsetInCU: 0x197C3, offset: 0x197C3, size: 0x8, addend: 0x0, symName: __ZNSt3__114__split_bufferI7FlowLogRNS_9allocatorIS1_EEE9__end_capB8ne180100Ev, symObjAddr: 0x6A44, symBinAddr: 0x100009028, symSize: 0x28 }
  - { offsetInCU: 0x197E9, offset: 0x197E9, size: 0x8, addend: 0x0, symName: __ZNSt3__117__compressed_pairIP7FlowLogRNS_9allocatorIS1_EEEC2B8ne180100IDnS5_EEOT_OT0_, symObjAddr: 0x6A6C, symBinAddr: 0x100009050, symSize: 0x48 }
  - { offsetInCU: 0x19841, offset: 0x19841, size: 0x8, addend: 0x0, symName: __ZNSt3__122__compressed_pair_elemIRNS_9allocatorI7FlowLogEELi1ELb0EEC2B8ne180100IS4_vEEOT_, symObjAddr: 0x6AB4, symBinAddr: 0x100009098, symSize: 0x20 }
  - { offsetInCU: 0x19883, offset: 0x19883, size: 0x8, addend: 0x0, symName: __ZNSt3__19allocatorI7FlowLogE8allocateB8ne180100Em, symObjAddr: 0x6AD4, symBinAddr: 0x1000090B8, symSize: 0x8C }
  - { offsetInCU: 0x198B7, offset: 0x198B7, size: 0x8, addend: 0x0, symName: __ZNSt3__117__compressed_pairIP7FlowLogRNS_9allocatorIS1_EEE6secondB8ne180100Ev, symObjAddr: 0x6B60, symBinAddr: 0x100009144, symSize: 0x28 }
  - { offsetInCU: 0x198DD, offset: 0x198DD, size: 0x8, addend: 0x0, symName: __ZNSt3__122__compressed_pair_elemIRNS_9allocatorI7FlowLogEELi1ELb0EE5__getB8ne180100Ev, symObjAddr: 0x6B88, symBinAddr: 0x10000916C, symSize: 0x18 }
  - { offsetInCU: 0x19903, offset: 0x19903, size: 0x8, addend: 0x0, symName: __ZNSt3__117__compressed_pairIP7FlowLogRNS_9allocatorIS1_EEE5firstB8ne180100Ev, symObjAddr: 0x6BA0, symBinAddr: 0x100009184, symSize: 0x24 }
  - { offsetInCU: 0x19929, offset: 0x19929, size: 0x8, addend: 0x0, symName: __ZNSt3__116reverse_iteratorIP7FlowLogEC1B8ne180100ES2_, symObjAddr: 0x6CF8, symBinAddr: 0x1000092DC, symSize: 0x34 }
  - { offsetInCU: 0x19961, offset: 0x19961, size: 0x8, addend: 0x0, symName: __ZNKSt3__116reverse_iteratorIP7FlowLogE4baseB8ne180100Ev, symObjAddr: 0x6D2C, symBinAddr: 0x100009310, symSize: 0x18 }
  - { offsetInCU: 0x19987, offset: 0x19987, size: 0x8, addend: 0x0, symName: __ZNKSt3__16vectorI7FlowLogNS_9allocatorIS1_EEE14__annotate_newB8ne180100Em, symObjAddr: 0x6D80, symBinAddr: 0x100009364, symSize: 0x14 }
  - { offsetInCU: 0x199BC, offset: 0x199BC, size: 0x8, addend: 0x0, symName: __ZNSt3__129_AllocatorDestroyRangeReverseINS_9allocatorI7FlowLogEENS_16reverse_iteratorIPS2_EEEC1B8ne180100ERS3_RS6_S9_, symObjAddr: 0x6DE0, symBinAddr: 0x1000093C4, symSize: 0x44 }
  - { offsetInCU: 0x19A13, offset: 0x19A13, size: 0x8, addend: 0x0, symName: __ZNKSt3__116reverse_iteratorIP7FlowLogEdeB8ne180100Ev, symObjAddr: 0x6E90, symBinAddr: 0x100009474, symSize: 0x28 }
  - { offsetInCU: 0x19A47, offset: 0x19A47, size: 0x8, addend: 0x0, symName: __ZNSt3__116reverse_iteratorIP7FlowLogEppB8ne180100Ev, symObjAddr: 0x6EB8, symBinAddr: 0x10000949C, symSize: 0x20 }
  - { offsetInCU: 0x19A6D, offset: 0x19A6D, size: 0x8, addend: 0x0, symName: __ZNSt3__128__exception_guard_exceptionsINS_29_AllocatorDestroyRangeReverseINS_9allocatorI7FlowLogEENS_16reverse_iteratorIPS3_EEEEE10__completeB8ne180100Ev, symObjAddr: 0x6ED8, symBinAddr: 0x1000094BC, symSize: 0x1C }
  - { offsetInCU: 0x19A93, offset: 0x19A93, size: 0x8, addend: 0x0, symName: __ZNSt3__128__exception_guard_exceptionsINS_29_AllocatorDestroyRangeReverseINS_9allocatorI7FlowLogEENS_16reverse_iteratorIPS3_EEEEED1B8ne180100Ev, symObjAddr: 0x6EF4, symBinAddr: 0x1000094D8, symSize: 0x2C }
  - { offsetInCU: 0x19ABD, offset: 0x19ABD, size: 0x8, addend: 0x0, symName: __ZNSt3__128__exception_guard_exceptionsINS_29_AllocatorDestroyRangeReverseINS_9allocatorI7FlowLogEENS_16reverse_iteratorIPS3_EEEEEC1B8ne180100ES8_, symObjAddr: 0x6F20, symBinAddr: 0x100009504, symSize: 0x34 }
  - { offsetInCU: 0x19AF6, offset: 0x19AF6, size: 0x8, addend: 0x0, symName: __ZNSt3__128__exception_guard_exceptionsINS_29_AllocatorDestroyRangeReverseINS_9allocatorI7FlowLogEENS_16reverse_iteratorIPS3_EEEEEC2B8ne180100ES8_, symObjAddr: 0x6F54, symBinAddr: 0x100009538, symSize: 0x30 }
  - { offsetInCU: 0x19B2F, offset: 0x19B2F, size: 0x8, addend: 0x0, symName: __ZNSt3__129_AllocatorDestroyRangeReverseINS_9allocatorI7FlowLogEENS_16reverse_iteratorIPS2_EEEC2B8ne180100ERS3_RS6_S9_, symObjAddr: 0x6F84, symBinAddr: 0x100009568, symSize: 0x38 }
  - { offsetInCU: 0x19B8B, offset: 0x19B8B, size: 0x8, addend: 0x0, symName: __ZNSt3__119__to_address_helperINS_16reverse_iteratorIP7FlowLogEEvE6__callB8ne180100ERKS4_, symObjAddr: 0x6FBC, symBinAddr: 0x1000095A0, symSize: 0x4C }
  - { offsetInCU: 0x19BAE, offset: 0x19BAE, size: 0x8, addend: 0x0, symName: __ZNKSt3__116reverse_iteratorIP7FlowLogEptB8ne180100Ev, symObjAddr: 0x7008, symBinAddr: 0x1000095EC, symSize: 0x24 }
  - { offsetInCU: 0x19BD4, offset: 0x19BD4, size: 0x8, addend: 0x0, symName: __ZNSt3__128__exception_guard_exceptionsINS_29_AllocatorDestroyRangeReverseINS_9allocatorI7FlowLogEENS_16reverse_iteratorIPS3_EEEEED2B8ne180100Ev, symObjAddr: 0x702C, symBinAddr: 0x100009610, symSize: 0x48 }
  - { offsetInCU: 0x19BFE, offset: 0x19BFE, size: 0x8, addend: 0x0, symName: __ZNKSt3__129_AllocatorDestroyRangeReverseINS_9allocatorI7FlowLogEENS_16reverse_iteratorIPS2_EEEclB8ne180100Ev, symObjAddr: 0x7074, symBinAddr: 0x100009658, symSize: 0xB4 }
  - { offsetInCU: 0x19C25, offset: 0x19C25, size: 0x8, addend: 0x0, symName: __ZNSt3__116reverse_iteratorINS0_IP7FlowLogEEEC1B8ne180100ES3_, symObjAddr: 0x7198, symBinAddr: 0x10000977C, symSize: 0x3C }
  - { offsetInCU: 0x19C5D, offset: 0x19C5D, size: 0x8, addend: 0x0, symName: __ZNSt3__116reverse_iteratorINS0_IP7FlowLogEEEppB8ne180100Ev, symObjAddr: 0x7258, symBinAddr: 0x10000983C, symSize: 0x30 }
  - { offsetInCU: 0x19C83, offset: 0x19C83, size: 0x8, addend: 0x0, symName: __ZNKSt3__116reverse_iteratorINS0_IP7FlowLogEEE4baseB8ne180100Ev, symObjAddr: 0x7288, symBinAddr: 0x10000986C, symSize: 0x24 }
  - { offsetInCU: 0x19CAE, offset: 0x19CAE, size: 0x8, addend: 0x0, symName: __ZNSt3__119__to_address_helperINS_16reverse_iteratorINS1_IP7FlowLogEEEEvE6__callB8ne180100ERKS5_, symObjAddr: 0x72AC, symBinAddr: 0x100009890, symSize: 0x4C }
  - { offsetInCU: 0x19CD1, offset: 0x19CD1, size: 0x8, addend: 0x0, symName: __ZNKSt3__116reverse_iteratorINS0_IP7FlowLogEEEptB8ne180100Ev, symObjAddr: 0x72F8, symBinAddr: 0x1000098DC, symSize: 0x24 }
  - { offsetInCU: 0x19CF7, offset: 0x19CF7, size: 0x8, addend: 0x0, symName: __ZNKSt3__116reverse_iteratorINS0_IP7FlowLogEEEdeB8ne180100Ev, symObjAddr: 0x731C, symBinAddr: 0x100009900, symSize: 0x34 }
  - { offsetInCU: 0x19D2B, offset: 0x19D2B, size: 0x8, addend: 0x0, symName: __ZNSt3__116reverse_iteratorIP7FlowLogEmmB8ne180100Ev, symObjAddr: 0x7350, symBinAddr: 0x100009934, symSize: 0x20 }
  - { offsetInCU: 0x19D51, offset: 0x19D51, size: 0x8, addend: 0x0, symName: __ZNSt3__116reverse_iteratorINS0_IP7FlowLogEEEC2B8ne180100ES3_, symObjAddr: 0x7370, symBinAddr: 0x100009954, symSize: 0x2C }
  - { offsetInCU: 0x19D89, offset: 0x19D89, size: 0x8, addend: 0x0, symName: __ZNSt3__116reverse_iteratorIP7FlowLogEC2B8ne180100ES2_, symObjAddr: 0x739C, symBinAddr: 0x100009980, symSize: 0x28 }
  - { offsetInCU: 0x19DC1, offset: 0x19DC1, size: 0x8, addend: 0x0, symName: __ZNSt3__114__split_bufferI7FlowLogRNS_9allocatorIS1_EEED2Ev, symObjAddr: 0x73C4, symBinAddr: 0x1000099A8, symSize: 0x80 }
  - { offsetInCU: 0x19DED, offset: 0x19DED, size: 0x8, addend: 0x0, symName: __ZNSt3__114__split_bufferI7FlowLogRNS_9allocatorIS1_EEE5clearB8ne180100Ev, symObjAddr: 0x7444, symBinAddr: 0x100009A28, symSize: 0x28 }
  - { offsetInCU: 0x19E13, offset: 0x19E13, size: 0x8, addend: 0x0, symName: __ZNKSt3__114__split_bufferI7FlowLogRNS_9allocatorIS1_EEE8capacityB8ne180100Ev, symObjAddr: 0x746C, symBinAddr: 0x100009A50, symSize: 0x40 }
  - { offsetInCU: 0x19E39, offset: 0x19E39, size: 0x8, addend: 0x0, symName: __ZNSt3__114__split_bufferI7FlowLogRNS_9allocatorIS1_EEE17__destruct_at_endB8ne180100EPS1_, symObjAddr: 0x74AC, symBinAddr: 0x100009A90, symSize: 0x2C }
  - { offsetInCU: 0x19E6D, offset: 0x19E6D, size: 0x8, addend: 0x0, symName: __ZNSt3__114__split_bufferI7FlowLogRNS_9allocatorIS1_EEE17__destruct_at_endB8ne180100EPS1_NS_17integral_constantIbLb0EEE, symObjAddr: 0x74D8, symBinAddr: 0x100009ABC, symSize: 0x94 }
  - { offsetInCU: 0x19EAE, offset: 0x19EAE, size: 0x8, addend: 0x0, symName: __ZNKSt3__114__split_bufferI7FlowLogRNS_9allocatorIS1_EEE9__end_capB8ne180100Ev, symObjAddr: 0x756C, symBinAddr: 0x100009B50, symSize: 0x28 }
  - { offsetInCU: 0x19ED4, offset: 0x19ED4, size: 0x8, addend: 0x0, symName: __ZNKSt3__117__compressed_pairIP7FlowLogRNS_9allocatorIS1_EEE5firstB8ne180100Ev, symObjAddr: 0x7594, symBinAddr: 0x100009B78, symSize: 0x24 }
  - { offsetInCU: 0x19EFA, offset: 0x19EFA, size: 0x8, addend: 0x0, symName: __ZNSt3__13mapINS_4pairIiNS_12basic_stringIcNS_11char_traitsIcEENS_9allocatorIcEEEEEES7_NS_4lessIS8_EENS5_INS1_IKS8_S7_EEEEEC2B8ne180100Ev, symObjAddr: 0x75B8, symBinAddr: 0x100009B9C, symSize: 0x40 }
  - { offsetInCU: 0x19F24, offset: 0x19F24, size: 0x8, addend: 0x0, symName: __ZNSt3__119__map_value_compareINS_4pairIiNS_12basic_stringIcNS_11char_traitsIcEENS_9allocatorIcEEEEEENS_12__value_typeIS8_S7_EENS_4lessIS8_EELb1EEC1B8ne180100ESC_, symObjAddr: 0x75F8, symBinAddr: 0x100009BDC, symSize: 0x2C }
  - { offsetInCU: 0x19F5D, offset: 0x19F5D, size: 0x8, addend: 0x0, symName: __ZNSt3__16__treeINS_12__value_typeINS_4pairIiNS_12basic_stringIcNS_11char_traitsIcEENS_9allocatorIcEEEEEES8_EENS_19__map_value_compareIS9_SA_NS_4lessIS9_EELb1EEENS6_ISA_EEEC1ERKSE_, symObjAddr: 0x7624, symBinAddr: 0x100009C08, symSize: 0x34 }
  - { offsetInCU: 0x19F98, offset: 0x19F98, size: 0x8, addend: 0x0, symName: __ZNSt3__119__map_value_compareINS_4pairIiNS_12basic_stringIcNS_11char_traitsIcEENS_9allocatorIcEEEEEENS_12__value_typeIS8_S7_EENS_4lessIS8_EELb1EEC2B8ne180100ESC_, symObjAddr: 0x7658, symBinAddr: 0x100009C3C, symSize: 0x14 }
  - { offsetInCU: 0x19FD1, offset: 0x19FD1, size: 0x8, addend: 0x0, symName: __ZNSt3__16__treeINS_12__value_typeINS_4pairIiNS_12basic_stringIcNS_11char_traitsIcEENS_9allocatorIcEEEEEES8_EENS_19__map_value_compareIS9_SA_NS_4lessIS9_EELb1EEENS6_ISA_EEEC2ERKSE_, symObjAddr: 0x766C, symBinAddr: 0x100009C50, symSize: 0x70 }
  - { offsetInCU: 0x1A00C, offset: 0x1A00C, size: 0x8, addend: 0x0, symName: __ZNSt3__117__compressed_pairINS_15__tree_end_nodeIPNS_16__tree_node_baseIPvEEEENS_9allocatorINS_11__tree_nodeINS_12__value_typeINS_4pairIiNS_12basic_stringIcNS_11char_traitsIcEENS7_IcEEEEEESF_EES3_EEEEEC1B8ne180100ILb1EvEEv, symObjAddr: 0x76DC, symBinAddr: 0x100009CC0, symSize: 0x2C }
  - { offsetInCU: 0x1A041, offset: 0x1A041, size: 0x8, addend: 0x0, symName: __ZNSt3__117__compressed_pairImNS_19__map_value_compareINS_4pairIiNS_12basic_stringIcNS_11char_traitsIcEENS_9allocatorIcEEEEEENS_12__value_typeIS9_S8_EENS_4lessIS9_EELb1EEEEC1B8ne180100IiRKSE_EEOT_OT0_, symObjAddr: 0x7708, symBinAddr: 0x100009CEC, symSize: 0x3C }
  - { offsetInCU: 0x1A099, offset: 0x1A099, size: 0x8, addend: 0x0, symName: __ZNSt3__16__treeINS_12__value_typeINS_4pairIiNS_12basic_stringIcNS_11char_traitsIcEENS_9allocatorIcEEEEEES8_EENS_19__map_value_compareIS9_SA_NS_4lessIS9_EELb1EEENS6_ISA_EEE10__end_nodeB8ne180100Ev, symObjAddr: 0x7744, symBinAddr: 0x100009D28, symSize: 0x2C }
  - { offsetInCU: 0x1A0BF, offset: 0x1A0BF, size: 0x8, addend: 0x0, symName: __ZNSt3__16__treeINS_12__value_typeINS_4pairIiNS_12basic_stringIcNS_11char_traitsIcEENS_9allocatorIcEEEEEES8_EENS_19__map_value_compareIS9_SA_NS_4lessIS9_EELb1EEENS6_ISA_EEE12__begin_nodeB8ne180100Ev, symObjAddr: 0x7770, symBinAddr: 0x100009D54, symSize: 0x14 }
  - { offsetInCU: 0x1A0E5, offset: 0x1A0E5, size: 0x8, addend: 0x0, symName: __ZNSt3__117__compressed_pairINS_15__tree_end_nodeIPNS_16__tree_node_baseIPvEEEENS_9allocatorINS_11__tree_nodeINS_12__value_typeINS_4pairIiNS_12basic_stringIcNS_11char_traitsIcEENS7_IcEEEEEESF_EES3_EEEEEC2B8ne180100ILb1EvEEv, symObjAddr: 0x7784, symBinAddr: 0x100009D68, symSize: 0x34 }
  - { offsetInCU: 0x1A11A, offset: 0x1A11A, size: 0x8, addend: 0x0, symName: __ZNSt3__122__compressed_pair_elemINS_9allocatorINS_11__tree_nodeINS_12__value_typeINS_4pairIiNS_12basic_stringIcNS_11char_traitsIcEENS1_IcEEEEEES9_EEPvEEEELi1ELb1EEC2B8ne180100ENS_16__value_init_tagE, symObjAddr: 0x77B8, symBinAddr: 0x100009D9C, symSize: 0x2C }
  - { offsetInCU: 0x1A14F, offset: 0x1A14F, size: 0x8, addend: 0x0, symName: __ZNSt3__19allocatorINS_11__tree_nodeINS_12__value_typeINS_4pairIiNS_12basic_stringIcNS_11char_traitsIcEENS0_IcEEEEEES8_EEPvEEEC2B8ne180100Ev, symObjAddr: 0x77E4, symBinAddr: 0x100009DC8, symSize: 0x2C }
  - { offsetInCU: 0x1A179, offset: 0x1A179, size: 0x8, addend: 0x0, symName: __ZNSt3__116__non_trivial_ifILb1ENS_9allocatorINS_11__tree_nodeINS_12__value_typeINS_4pairIiNS_12basic_stringIcNS_11char_traitsIcEENS1_IcEEEEEES9_EEPvEEEEEC2B8ne180100Ev, symObjAddr: 0x7810, symBinAddr: 0x100009DF4, symSize: 0x14 }
  - { offsetInCU: 0x1A1A3, offset: 0x1A1A3, size: 0x8, addend: 0x0, symName: __ZNSt3__117__compressed_pairImNS_19__map_value_compareINS_4pairIiNS_12basic_stringIcNS_11char_traitsIcEENS_9allocatorIcEEEEEENS_12__value_typeIS9_S8_EENS_4lessIS9_EELb1EEEEC2B8ne180100IiRKSE_EEOT_OT0_, symObjAddr: 0x7824, symBinAddr: 0x100009E08, symSize: 0x44 }
  - { offsetInCU: 0x1A1FB, offset: 0x1A1FB, size: 0x8, addend: 0x0, symName: __ZNSt3__122__compressed_pair_elemINS_19__map_value_compareINS_4pairIiNS_12basic_stringIcNS_11char_traitsIcEENS_9allocatorIcEEEEEENS_12__value_typeIS9_S8_EENS_4lessIS9_EELb1EEELi1ELb1EEC2B8ne180100IRKSE_vEEOT_, symObjAddr: 0x7868, symBinAddr: 0x100009E4C, symSize: 0x18 }
  - { offsetInCU: 0x1A23D, offset: 0x1A23D, size: 0x8, addend: 0x0, symName: __ZNSt3__117__compressed_pairINS_15__tree_end_nodeIPNS_16__tree_node_baseIPvEEEENS_9allocatorINS_11__tree_nodeINS_12__value_typeINS_4pairIiNS_12basic_stringIcNS_11char_traitsIcEENS7_IcEEEEEESF_EES3_EEEEE5firstB8ne180100Ev, symObjAddr: 0x7880, symBinAddr: 0x100009E64, symSize: 0x24 }
  - { offsetInCU: 0x1A263, offset: 0x1A263, size: 0x8, addend: 0x0, symName: __ZNSt3__13mapINS_4pairIiNS_12basic_stringIcNS_11char_traitsIcEENS_9allocatorIcEEEEEES7_NS_4lessIS8_EENS5_INS1_IKS8_S7_EEEEED2B8ne180100Ev, symObjAddr: 0x78A4, symBinAddr: 0x100009E88, symSize: 0x2C }
  - { offsetInCU: 0x1A28D, offset: 0x1A28D, size: 0x8, addend: 0x0, symName: __ZNSt3__16__treeINS_12__value_typeINS_4pairIiNS_12basic_stringIcNS_11char_traitsIcEENS_9allocatorIcEEEEEES8_EENS_19__map_value_compareIS9_SA_NS_4lessIS9_EELb1EEENS6_ISA_EEED1Ev, symObjAddr: 0x78D0, symBinAddr: 0x100009EB4, symSize: 0x2C }
  - { offsetInCU: 0x1A2B9, offset: 0x1A2B9, size: 0x8, addend: 0x0, symName: __ZNSt3__16__treeINS_12__value_typeINS_4pairIiNS_12basic_stringIcNS_11char_traitsIcEENS_9allocatorIcEEEEEES8_EENS_19__map_value_compareIS9_SA_NS_4lessIS9_EELb1EEENS6_ISA_EEED2Ev, symObjAddr: 0x78FC, symBinAddr: 0x100009EE0, symSize: 0x38 }
  - { offsetInCU: 0x1A2E5, offset: 0x1A2E5, size: 0x8, addend: 0x0, symName: __ZNSt3__16__treeINS_12__value_typeINS_4pairIiNS_12basic_stringIcNS_11char_traitsIcEENS_9allocatorIcEEEEEES8_EENS_19__map_value_compareIS9_SA_NS_4lessIS9_EELb1EEENS6_ISA_EEE7destroyEPNS_11__tree_nodeISA_PvEE, symObjAddr: 0x7934, symBinAddr: 0x100009F18, symSize: 0xC0 }
  - { offsetInCU: 0x1A339, offset: 0x1A339, size: 0x8, addend: 0x0, symName: __ZNKSt3__16__treeINS_12__value_typeINS_4pairIiNS_12basic_stringIcNS_11char_traitsIcEENS_9allocatorIcEEEEEES8_EENS_19__map_value_compareIS9_SA_NS_4lessIS9_EELb1EEENS6_ISA_EEE6__rootB8ne180100Ev, symObjAddr: 0x79F4, symBinAddr: 0x100009FD8, symSize: 0x28 }
  - { offsetInCU: 0x1A35F, offset: 0x1A35F, size: 0x8, addend: 0x0, symName: __ZNSt3__16__treeINS_12__value_typeINS_4pairIiNS_12basic_stringIcNS_11char_traitsIcEENS_9allocatorIcEEEEEES8_EENS_19__map_value_compareIS9_SA_NS_4lessIS9_EELb1EEENS6_ISA_EEE12__node_allocB8ne180100Ev, symObjAddr: 0x7A1C, symBinAddr: 0x10000A000, symSize: 0x28 }
  - { offsetInCU: 0x1A385, offset: 0x1A385, size: 0x8, addend: 0x0, symName: __ZNSt3__116allocator_traitsINS_9allocatorINS_11__tree_nodeINS_12__value_typeINS_4pairIiNS_12basic_stringIcNS_11char_traitsIcEENS1_IcEEEEEES9_EEPvEEEEE7destroyB8ne180100INS4_IKSA_S9_EEvvEEvRSE_PT_, symObjAddr: 0x7A44, symBinAddr: 0x10000A028, symSize: 0x28 }
  - { offsetInCU: 0x1A3C0, offset: 0x1A3C0, size: 0x8, addend: 0x0, symName: __ZNSt3__122__tree_key_value_typesINS_12__value_typeINS_4pairIiNS_12basic_stringIcNS_11char_traitsIcEENS_9allocatorIcEEEEEES8_EEE9__get_ptrB8ne180100ERSA_, symObjAddr: 0x7A6C, symBinAddr: 0x10000A050, symSize: 0x24 }
  - { offsetInCU: 0x1A3E4, offset: 0x1A3E4, size: 0x8, addend: 0x0, symName: __ZNSt3__116allocator_traitsINS_9allocatorINS_11__tree_nodeINS_12__value_typeINS_4pairIiNS_12basic_stringIcNS_11char_traitsIcEENS1_IcEEEEEES9_EEPvEEEEE10deallocateB8ne180100ERSE_PSD_m, symObjAddr: 0x7A90, symBinAddr: 0x10000A074, symSize: 0x34 }
  - { offsetInCU: 0x1A426, offset: 0x1A426, size: 0x8, addend: 0x0, symName: __ZNSt3__117__compressed_pairINS_15__tree_end_nodeIPNS_16__tree_node_baseIPvEEEENS_9allocatorINS_11__tree_nodeINS_12__value_typeINS_4pairIiNS_12basic_stringIcNS_11char_traitsIcEENS7_IcEEEEEESF_EES3_EEEEE6secondB8ne180100Ev, symObjAddr: 0x7AC4, symBinAddr: 0x10000A0A8, symSize: 0x24 }
  - { offsetInCU: 0x1A44C, offset: 0x1A44C, size: 0x8, addend: 0x0, symName: __ZNSt3__122__compressed_pair_elemINS_9allocatorINS_11__tree_nodeINS_12__value_typeINS_4pairIiNS_12basic_stringIcNS_11char_traitsIcEENS1_IcEEEEEES9_EEPvEEEELi1ELb1EE5__getB8ne180100Ev, symObjAddr: 0x7AE8, symBinAddr: 0x10000A0CC, symSize: 0x14 }
  - { offsetInCU: 0x1A472, offset: 0x1A472, size: 0x8, addend: 0x0, symName: __ZNSt3__14pairIKNS0_IiNS_12basic_stringIcNS_11char_traitsIcEENS_9allocatorIcEEEEEES6_ED1Ev, symObjAddr: 0x7B20, symBinAddr: 0x10000A104, symSize: 0x2C }
  - { offsetInCU: 0x1A49E, offset: 0x1A49E, size: 0x8, addend: 0x0, symName: __ZNSt3__14pairIKNS0_IiNS_12basic_stringIcNS_11char_traitsIcEENS_9allocatorIcEEEEEES6_ED2Ev, symObjAddr: 0x7B4C, symBinAddr: 0x10000A130, symSize: 0x68 }
  - { offsetInCU: 0x1A4CA, offset: 0x1A4CA, size: 0x8, addend: 0x0, symName: __ZNSt3__112__value_typeINS_4pairIiNS_12basic_stringIcNS_11char_traitsIcEENS_9allocatorIcEEEEEES7_E11__get_valueB8ne180100Ev, symObjAddr: 0x7BB4, symBinAddr: 0x10000A198, symSize: 0x14 }
  - { offsetInCU: 0x1A4F0, offset: 0x1A4F0, size: 0x8, addend: 0x0, symName: __ZNSt3__19allocatorINS_11__tree_nodeINS_12__value_typeINS_4pairIiNS_12basic_stringIcNS_11char_traitsIcEENS0_IcEEEEEES8_EEPvEEE10deallocateB8ne180100EPSC_m, symObjAddr: 0x7BC8, symBinAddr: 0x10000A1AC, symSize: 0x74 }
  - { offsetInCU: 0x1A532, offset: 0x1A532, size: 0x8, addend: 0x0, symName: __ZNKSt3__16__treeINS_12__value_typeINS_4pairIiNS_12basic_stringIcNS_11char_traitsIcEENS_9allocatorIcEEEEEES8_EENS_19__map_value_compareIS9_SA_NS_4lessIS9_EELb1EEENS6_ISA_EEE10__end_nodeB8ne180100Ev, symObjAddr: 0x7C3C, symBinAddr: 0x10000A220, symSize: 0x2C }
  - { offsetInCU: 0x1A558, offset: 0x1A558, size: 0x8, addend: 0x0, symName: __ZNKSt3__117__compressed_pairINS_15__tree_end_nodeIPNS_16__tree_node_baseIPvEEEENS_9allocatorINS_11__tree_nodeINS_12__value_typeINS_4pairIiNS_12basic_stringIcNS_11char_traitsIcEENS7_IcEEEEEESF_EES3_EEEEE5firstB8ne180100Ev, symObjAddr: 0x7C68, symBinAddr: 0x10000A24C, symSize: 0x24 }
  - { offsetInCU: 0x1A57E, offset: 0x1A57E, size: 0x8, addend: 0x0, symName: __ZNSt3__114basic_iostreamIcNS_11char_traitsIcEEEC2B8ne180100EPNS_15basic_streambufIcS2_EE, symObjAddr: 0x7C8C, symBinAddr: 0x10000A270, symSize: 0xB4 }
  - { offsetInCU: 0x1A5C4, offset: 0x1A5C4, size: 0x8, addend: 0x0, symName: __ZNSt3__113basic_ostreamIcNS_11char_traitsIcEEEC2B8ne180100Ev, symObjAddr: 0x7D40, symBinAddr: 0x10000A324, symSize: 0x34 }
  - { offsetInCU: 0x1A5FB, offset: 0x1A5FB, size: 0x8, addend: 0x0, symName: __ZNSt3__111char_traitsIcE2eqEcc, symObjAddr: 0x7D74, symBinAddr: 0x10000A358, symSize: 0x28 }
  - { offsetInCU: 0x1A62C, offset: 0x1A62C, size: 0x8, addend: 0x0, symName: __ZNKSt3__112basic_stringIcNS_11char_traitsIcEENS_9allocatorIcEEE4dataB8ne180100Ev, symObjAddr: 0x7F90, symBinAddr: 0x10000A574, symSize: 0x28 }
  - { offsetInCU: 0x1A670, offset: 0x1A670, size: 0x8, addend: 0x0, symName: __ZNKSt3__113basic_ostreamIcNS_11char_traitsIcEEE6sentrycvbB8ne180100Ev, symObjAddr: 0x7FB8, symBinAddr: 0x10000A59C, symSize: 0x1C }
  - { offsetInCU: 0x1A696, offset: 0x1A696, size: 0x8, addend: 0x0, symName: __ZNSt3__119ostreambuf_iteratorIcNS_11char_traitsIcEEEC1B8ne180100ERNS_13basic_ostreamIcS2_EE, symObjAddr: 0x821C, symBinAddr: 0x10000A800, symSize: 0x34 }
  - { offsetInCU: 0x1A6CE, offset: 0x1A6CE, size: 0x8, addend: 0x0, symName: __ZNKSt3__18ios_base5flagsB8ne180100Ev, symObjAddr: 0x8250, symBinAddr: 0x10000A834, symSize: 0x18 }
  - { offsetInCU: 0x1A6F6, offset: 0x1A6F6, size: 0x8, addend: 0x0, symName: __ZNKSt3__19basic_iosIcNS_11char_traitsIcEEE4fillB8ne180100Ev, symObjAddr: 0x8268, symBinAddr: 0x10000A84C, symSize: 0x64 }
  - { offsetInCU: 0x1A71E, offset: 0x1A71E, size: 0x8, addend: 0x0, symName: __ZNKSt3__119ostreambuf_iteratorIcNS_11char_traitsIcEEE6failedB8ne180100Ev, symObjAddr: 0x82CC, symBinAddr: 0x10000A8B0, symSize: 0x24 }
  - { offsetInCU: 0x1A744, offset: 0x1A744, size: 0x8, addend: 0x0, symName: __ZNSt3__115basic_streambufIcNS_11char_traitsIcEEE5sputnB8ne180100EPKcl, symObjAddr: 0x82F0, symBinAddr: 0x10000A8D4, symSize: 0x3C }
  - { offsetInCU: 0x1A786, offset: 0x1A786, size: 0x8, addend: 0x0, symName: __ZNSt3__112basic_stringIcNS_11char_traitsIcEENS_9allocatorIcEEEC1B8ne180100Emc, symObjAddr: 0x832C, symBinAddr: 0x10000A910, symSize: 0x3C }
  - { offsetInCU: 0x1A7CE, offset: 0x1A7CE, size: 0x8, addend: 0x0, symName: __ZNSt3__112basic_stringIcNS_11char_traitsIcEENS_9allocatorIcEEEC2B8ne180100Emc, symObjAddr: 0x8368, symBinAddr: 0x10000A94C, symSize: 0x4C }
  - { offsetInCU: 0x1A816, offset: 0x1A816, size: 0x8, addend: 0x0, symName: __ZNSt3__117__compressed_pairINS_12basic_stringIcNS_11char_traitsIcEENS_9allocatorIcEEE5__repES5_EC1B8ne180100INS_18__default_init_tagESA_EEOT_OT0_, symObjAddr: 0x83B4, symBinAddr: 0x10000A998, symSize: 0x3C }
  - { offsetInCU: 0x1A86E, offset: 0x1A86E, size: 0x8, addend: 0x0, symName: __ZNSt3__117__compressed_pairINS_12basic_stringIcNS_11char_traitsIcEENS_9allocatorIcEEE5__repES5_EC2B8ne180100INS_18__default_init_tagESA_EEOT_OT0_, symObjAddr: 0x83F0, symBinAddr: 0x10000A9D4, symSize: 0x3C }
  - { offsetInCU: 0x1A8C6, offset: 0x1A8C6, size: 0x8, addend: 0x0, symName: __ZNSt3__122__compressed_pair_elemINS_12basic_stringIcNS_11char_traitsIcEENS_9allocatorIcEEE5__repELi0ELb0EEC2B8ne180100ENS_18__default_init_tagE, symObjAddr: 0x842C, symBinAddr: 0x10000AA10, symSize: 0x14 }
  - { offsetInCU: 0x1A8FB, offset: 0x1A8FB, size: 0x8, addend: 0x0, symName: __ZNSt3__119ostreambuf_iteratorIcNS_11char_traitsIcEEEC2B8ne180100ERNS_13basic_ostreamIcS2_EE, symObjAddr: 0x8440, symBinAddr: 0x10000AA24, symSize: 0x68 }
  - { offsetInCU: 0x1A933, offset: 0x1A933, size: 0x8, addend: 0x0, symName: __ZNKSt3__112basic_stringIcNS_11char_traitsIcEENS_9allocatorIcEEE13__get_pointerB8ne180100Ev, symObjAddr: 0x84BC, symBinAddr: 0x10000AAA0, symSize: 0x54 }
  - { offsetInCU: 0x1A959, offset: 0x1A959, size: 0x8, addend: 0x0, symName: __ZNKSt3__112basic_stringIcNS_11char_traitsIcEENS_9allocatorIcEEE18__get_long_pointerB8ne180100Ev, symObjAddr: 0x8510, symBinAddr: 0x10000AAF4, symSize: 0x28 }
  - { offsetInCU: 0x1A97F, offset: 0x1A97F, size: 0x8, addend: 0x0, symName: __ZNKSt3__112basic_stringIcNS_11char_traitsIcEENS_9allocatorIcEEE19__get_short_pointerB8ne180100Ev, symObjAddr: 0x8538, symBinAddr: 0x10000AB1C, symSize: 0x28 }
  - { offsetInCU: 0x1A9A5, offset: 0x1A9A5, size: 0x8, addend: 0x0, symName: __ZNSt3__114pointer_traitsIPKcE10pointer_toB8ne180100ERS1_, symObjAddr: 0x8560, symBinAddr: 0x10000AB44, symSize: 0x14 }
  - { offsetInCU: 0x1A9C8, offset: 0x1A9C8, size: 0x8, addend: 0x0, symName: __ZNSt3__14pairIiNS_12basic_stringIcNS_11char_traitsIcEENS_9allocatorIcEEEEEC2B8ne180100Ev, symObjAddr: 0x8574, symBinAddr: 0x10000AB58, symSize: 0x34 }
  - { offsetInCU: 0x1A9F2, offset: 0x1A9F2, size: 0x8, addend: 0x0, symName: __ZNSt3__16__treeINS_12__value_typeINS_4pairIiNS_12basic_stringIcNS_11char_traitsIcEENS_9allocatorIcEEEEEES8_EENS_19__map_value_compareIS9_SA_NS_4lessIS9_EELb1EEENS6_ISA_EEE12__find_equalIS9_EERPNS_16__tree_node_baseIPvEERPNS_15__tree_end_nodeISL_EERKT_, symObjAddr: 0x85A8, symBinAddr: 0x10000AB8C, symSize: 0x184 }
  - { offsetInCU: 0x1AA5F, offset: 0x1AA5F, size: 0x8, addend: 0x0, symName: __ZNSt3__13mapINS_4pairIiNS_12basic_stringIcNS_11char_traitsIcEENS_9allocatorIcEEEEEES7_NS_4lessIS8_EENS5_INS1_IKS8_S7_EEEEE25__construct_node_with_keyERSB_, symObjAddr: 0x872C, symBinAddr: 0x10000AD10, symSize: 0x144 }
  - { offsetInCU: 0x1AAB5, offset: 0x1AAB5, size: 0x8, addend: 0x0, symName: __ZNSt3__16__treeINS_12__value_typeINS_4pairIiNS_12basic_stringIcNS_11char_traitsIcEENS_9allocatorIcEEEEEES8_EENS_19__map_value_compareIS9_SA_NS_4lessIS9_EELb1EEENS6_ISA_EEE16__insert_node_atEPNS_15__tree_end_nodeIPNS_16__tree_node_baseIPvEEEERSL_SL_, symObjAddr: 0x8870, symBinAddr: 0x10000AE54, symSize: 0xCC }
  - { offsetInCU: 0x1AB0A, offset: 0x1AB0A, size: 0x8, addend: 0x0, symName: __ZNKSt3__110unique_ptrINS_11__tree_nodeINS_12__value_typeINS_4pairIiNS_12basic_stringIcNS_11char_traitsIcEENS_9allocatorIcEEEEEES9_EEPvEENS_21__map_node_destructorINS7_ISD_EEEEE3getB8ne180100Ev, symObjAddr: 0x893C, symBinAddr: 0x10000AF20, symSize: 0x28 }
  - { offsetInCU: 0x1AB30, offset: 0x1AB30, size: 0x8, addend: 0x0, symName: __ZNSt3__110unique_ptrINS_11__tree_nodeINS_12__value_typeINS_4pairIiNS_12basic_stringIcNS_11char_traitsIcEENS_9allocatorIcEEEEEES9_EEPvEENS_21__map_node_destructorINS7_ISD_EEEEE7releaseB8ne180100Ev, symObjAddr: 0x8964, symBinAddr: 0x10000AF48, symSize: 0x44 }
  - { offsetInCU: 0x1AB65, offset: 0x1AB65, size: 0x8, addend: 0x0, symName: __ZNSt3__110unique_ptrINS_11__tree_nodeINS_12__value_typeINS_4pairIiNS_12basic_stringIcNS_11char_traitsIcEENS_9allocatorIcEEEEEES9_EEPvEENS_21__map_node_destructorINS7_ISD_EEEEED1B8ne180100Ev, symObjAddr: 0x89A8, symBinAddr: 0x10000AF8C, symSize: 0x2C }
  - { offsetInCU: 0x1AB8F, offset: 0x1AB8F, size: 0x8, addend: 0x0, symName: __ZNKSt3__16__treeINS_12__value_typeINS_4pairIiNS_12basic_stringIcNS_11char_traitsIcEENS_9allocatorIcEEEEEES8_EENS_19__map_value_compareIS9_SA_NS_4lessIS9_EELb1EEENS6_ISA_EEE10__root_ptrB8ne180100Ev, symObjAddr: 0x89D4, symBinAddr: 0x10000AFB8, symSize: 0x24 }
  - { offsetInCU: 0x1ABB5, offset: 0x1ABB5, size: 0x8, addend: 0x0, symName: __ZNSt3__16__treeINS_12__value_typeINS_4pairIiNS_12basic_stringIcNS_11char_traitsIcEENS_9allocatorIcEEEEEES8_EENS_19__map_value_compareIS9_SA_NS_4lessIS9_EELb1EEENS6_ISA_EEE10value_compB8ne180100Ev, symObjAddr: 0x89F8, symBinAddr: 0x10000AFDC, symSize: 0x28 }
  - { offsetInCU: 0x1ABDB, offset: 0x1ABDB, size: 0x8, addend: 0x0, symName: __ZNKSt3__119__map_value_compareINS_4pairIiNS_12basic_stringIcNS_11char_traitsIcEENS_9allocatorIcEEEEEENS_12__value_typeIS8_S7_EENS_4lessIS8_EELb1EEclB8ne180100ERKS8_RKSA_, symObjAddr: 0x8A20, symBinAddr: 0x10000B004, symSize: 0x50 }
  - { offsetInCU: 0x1AC1F, offset: 0x1AC1F, size: 0x8, addend: 0x0, symName: __ZNKSt3__119__map_value_compareINS_4pairIiNS_12basic_stringIcNS_11char_traitsIcEENS_9allocatorIcEEEEEENS_12__value_typeIS8_S7_EENS_4lessIS8_EELb1EEclB8ne180100ERKSA_RKS8_, symObjAddr: 0x8A70, symBinAddr: 0x10000B054, symSize: 0x48 }
  - { offsetInCU: 0x1AC63, offset: 0x1AC63, size: 0x8, addend: 0x0, symName: __ZNSt3__117__compressed_pairImNS_19__map_value_compareINS_4pairIiNS_12basic_stringIcNS_11char_traitsIcEENS_9allocatorIcEEEEEENS_12__value_typeIS9_S8_EENS_4lessIS9_EELb1EEEE6secondB8ne180100Ev, symObjAddr: 0x8AB8, symBinAddr: 0x10000B09C, symSize: 0x24 }
  - { offsetInCU: 0x1AC89, offset: 0x1AC89, size: 0x8, addend: 0x0, symName: __ZNSt3__122__compressed_pair_elemINS_19__map_value_compareINS_4pairIiNS_12basic_stringIcNS_11char_traitsIcEENS_9allocatorIcEEEEEENS_12__value_typeIS9_S8_EENS_4lessIS9_EELb1EEELi1ELb1EE5__getB8ne180100Ev, symObjAddr: 0x8ADC, symBinAddr: 0x10000B0C0, symSize: 0x14 }
  - { offsetInCU: 0x1ACAF, offset: 0x1ACAF, size: 0x8, addend: 0x0, symName: __ZNKSt3__14lessINS_4pairIiNS_12basic_stringIcNS_11char_traitsIcEENS_9allocatorIcEEEEEEEclB8ne180100ERKS8_SB_, symObjAddr: 0x8AF0, symBinAddr: 0x10000B0D4, symSize: 0x34 }
  - { offsetInCU: 0x1ACF3, offset: 0x1ACF3, size: 0x8, addend: 0x0, symName: __ZNKSt3__112__value_typeINS_4pairIiNS_12basic_stringIcNS_11char_traitsIcEENS_9allocatorIcEEEEEES7_E11__get_valueB8ne180100Ev, symObjAddr: 0x8B24, symBinAddr: 0x10000B108, symSize: 0x14 }
  - { offsetInCU: 0x1AD19, offset: 0x1AD19, size: 0x8, addend: 0x0, symName: __ZNKSt3__112basic_stringIcNS_11char_traitsIcEENS_9allocatorIcEEE7compareB8ne180100ERKS5_, symObjAddr: 0x8C10, symBinAddr: 0x10000B1F4, symSize: 0x4C }
  - { offsetInCU: 0x1AD50, offset: 0x1AD50, size: 0x8, addend: 0x0, symName: __ZNKSt3__112basic_stringIcNS_11char_traitsIcEENS_9allocatorIcEEE7compareINS_17basic_string_viewIcS2_EELi0EEEiRKT_, symObjAddr: 0x8C5C, symBinAddr: 0x10000B240, symSize: 0x140 }
  - { offsetInCU: 0x1ADD3, offset: 0x1ADD3, size: 0x8, addend: 0x0, symName: __ZNKSt3__112basic_stringIcNS_11char_traitsIcEENS_9allocatorIcEEEcvNS_17basic_string_viewIcS2_EEB8ne180100Ev, symObjAddr: 0x8D9C, symBinAddr: 0x10000B380, symSize: 0x50 }
  - { offsetInCU: 0x1ADF9, offset: 0x1ADF9, size: 0x8, addend: 0x0, symName: __ZNKSt3__117basic_string_viewIcNS_11char_traitsIcEEE4sizeB8ne180100Ev, symObjAddr: 0x8DEC, symBinAddr: 0x10000B3D0, symSize: 0x18 }
  - { offsetInCU: 0x1AE1F, offset: 0x1AE1F, size: 0x8, addend: 0x0, symName: __ZNSt3__111char_traitsIcE7compareB8ne180100EPKcS3_m, symObjAddr: 0x8E04, symBinAddr: 0x10000B3E8, symSize: 0x64 }
  - { offsetInCU: 0x1AE5E, offset: 0x1AE5E, size: 0x8, addend: 0x0, symName: __ZNKSt3__117basic_string_viewIcNS_11char_traitsIcEEE4dataB8ne180100Ev, symObjAddr: 0x8E68, symBinAddr: 0x10000B44C, symSize: 0x18 }
  - { offsetInCU: 0x1AE84, offset: 0x1AE84, size: 0x8, addend: 0x0, symName: __ZNSt3__117basic_string_viewIcNS_11char_traitsIcEEEC1B8ne180100EPKcm, symObjAddr: 0x8E80, symBinAddr: 0x10000B464, symSize: 0x3C }
  - { offsetInCU: 0x1AECC, offset: 0x1AECC, size: 0x8, addend: 0x0, symName: __ZNSt3__117basic_string_viewIcNS_11char_traitsIcEEEC2B8ne180100EPKcm, symObjAddr: 0x8EBC, symBinAddr: 0x10000B4A0, symSize: 0x2C }
  - { offsetInCU: 0x1AF14, offset: 0x1AF14, size: 0x8, addend: 0x0, symName: __ZNSt3__116allocator_traitsINS_9allocatorINS_11__tree_nodeINS_12__value_typeINS_4pairIiNS_12basic_stringIcNS_11char_traitsIcEENS1_IcEEEEEES9_EEPvEEEEE8allocateB8ne180100ERSE_m, symObjAddr: 0x8EE8, symBinAddr: 0x10000B4CC, symSize: 0x2C }
  - { offsetInCU: 0x1AF47, offset: 0x1AF47, size: 0x8, addend: 0x0, symName: __ZNSt3__121__map_node_destructorINS_9allocatorINS_11__tree_nodeINS_12__value_typeINS_4pairIiNS_12basic_stringIcNS_11char_traitsIcEENS1_IcEEEEEES9_EEPvEEEEEC1B8ne180100ERSE_, symObjAddr: 0x8F14, symBinAddr: 0x10000B4F8, symSize: 0x34 }
  - { offsetInCU: 0x1AF85, offset: 0x1AF85, size: 0x8, addend: 0x0, symName: __ZNSt3__110unique_ptrINS_11__tree_nodeINS_12__value_typeINS_4pairIiNS_12basic_stringIcNS_11char_traitsIcEENS_9allocatorIcEEEEEES9_EEPvEENS_21__map_node_destructorINS7_ISD_EEEEEC1B8ne180100ILb1EvEEPSD_NS_16__dependent_typeINS_27__unique_ptr_deleter_sfinaeISG_EEXT_EE20__good_rval_ref_typeE, symObjAddr: 0x8F48, symBinAddr: 0x10000B52C, symSize: 0x3C }
  - { offsetInCU: 0x1AFDB, offset: 0x1AFDB, size: 0x8, addend: 0x0, symName: __ZNSt3__116allocator_traitsINS_9allocatorINS_11__tree_nodeINS_12__value_typeINS_4pairIiNS_12basic_stringIcNS_11char_traitsIcEENS1_IcEEEEEES9_EEPvEEEEE9constructB8ne180100IKSA_JRSH_EvEEvRSE_PT_DpOT0_, symObjAddr: 0x8F84, symBinAddr: 0x10000B568, symSize: 0x34 }
  - { offsetInCU: 0x1B032, offset: 0x1B032, size: 0x8, addend: 0x0, symName: __ZNKSt3__110unique_ptrINS_11__tree_nodeINS_12__value_typeINS_4pairIiNS_12basic_stringIcNS_11char_traitsIcEENS_9allocatorIcEEEEEES9_EEPvEENS_21__map_node_destructorINS7_ISD_EEEEEptB8ne180100Ev, symObjAddr: 0x8FB8, symBinAddr: 0x10000B59C, symSize: 0x28 }
  - { offsetInCU: 0x1B058, offset: 0x1B058, size: 0x8, addend: 0x0, symName: __ZNSt3__110unique_ptrINS_11__tree_nodeINS_12__value_typeINS_4pairIiNS_12basic_stringIcNS_11char_traitsIcEENS_9allocatorIcEEEEEES9_EEPvEENS_21__map_node_destructorINS7_ISD_EEEEE11get_deleterB8ne180100Ev, symObjAddr: 0x8FE0, symBinAddr: 0x10000B5C4, symSize: 0x24 }
  - { offsetInCU: 0x1B07E, offset: 0x1B07E, size: 0x8, addend: 0x0, symName: __ZNSt3__116allocator_traitsINS_9allocatorINS_11__tree_nodeINS_12__value_typeINS_4pairIiNS_12basic_stringIcNS_11char_traitsIcEENS1_IcEEEEEES9_EEPvEEEEE9constructB8ne180100IS9_JEvEEvRSE_PT_DpOT0_, symObjAddr: 0x9004, symBinAddr: 0x10000B5E8, symSize: 0x2C }
  - { offsetInCU: 0x1B0C0, offset: 0x1B0C0, size: 0x8, addend: 0x0, symName: __ZNSt3__19allocatorINS_11__tree_nodeINS_12__value_typeINS_4pairIiNS_12basic_stringIcNS_11char_traitsIcEENS0_IcEEEEEES8_EEPvEEE8allocateB8ne180100Em, symObjAddr: 0x9030, symBinAddr: 0x10000B614, symSize: 0x8C }
  - { offsetInCU: 0x1B0FE, offset: 0x1B0FE, size: 0x8, addend: 0x0, symName: __ZNSt3__116allocator_traitsINS_9allocatorINS_11__tree_nodeINS_12__value_typeINS_4pairIiNS_12basic_stringIcNS_11char_traitsIcEENS1_IcEEEEEES9_EEPvEEEEE8max_sizeB8ne180100ISE_vEEmRKSE_, symObjAddr: 0x90BC, symBinAddr: 0x10000B6A0, symSize: 0x24 }
  - { offsetInCU: 0x1B12C, offset: 0x1B12C, size: 0x8, addend: 0x0, symName: __ZNKSt3__19allocatorINS_11__tree_nodeINS_12__value_typeINS_4pairIiNS_12basic_stringIcNS_11char_traitsIcEENS0_IcEEEEEES8_EEPvEEE8max_sizeB8ne180100Ev, symObjAddr: 0x90E0, symBinAddr: 0x10000B6C4, symSize: 0x20 }
  - { offsetInCU: 0x1B152, offset: 0x1B152, size: 0x8, addend: 0x0, symName: __ZNSt3__121__map_node_destructorINS_9allocatorINS_11__tree_nodeINS_12__value_typeINS_4pairIiNS_12basic_stringIcNS_11char_traitsIcEENS1_IcEEEEEES9_EEPvEEEEEC2B8ne180100ERSE_, symObjAddr: 0x9100, symBinAddr: 0x10000B6E4, symSize: 0x28 }
  - { offsetInCU: 0x1B18B, offset: 0x1B18B, size: 0x8, addend: 0x0, symName: __ZNSt3__110unique_ptrINS_11__tree_nodeINS_12__value_typeINS_4pairIiNS_12basic_stringIcNS_11char_traitsIcEENS_9allocatorIcEEEEEES9_EEPvEENS_21__map_node_destructorINS7_ISD_EEEEEC2B8ne180100ILb1EvEEPSD_NS_16__dependent_typeINS_27__unique_ptr_deleter_sfinaeISG_EEXT_EE20__good_rval_ref_typeE, symObjAddr: 0x9128, symBinAddr: 0x10000B70C, symSize: 0x5C }
  - { offsetInCU: 0x1B1DC, offset: 0x1B1DC, size: 0x8, addend: 0x0, symName: __ZNSt3__117__compressed_pairIPNS_11__tree_nodeINS_12__value_typeINS_4pairIiNS_12basic_stringIcNS_11char_traitsIcEENS_9allocatorIcEEEEEES9_EEPvEENS_21__map_node_destructorINS7_ISD_EEEEEC1B8ne180100IRSE_SH_EEOT_OT0_, symObjAddr: 0x9184, symBinAddr: 0x10000B768, symSize: 0x3C }
  - { offsetInCU: 0x1B234, offset: 0x1B234, size: 0x8, addend: 0x0, symName: __ZNSt3__117__compressed_pairIPNS_11__tree_nodeINS_12__value_typeINS_4pairIiNS_12basic_stringIcNS_11char_traitsIcEENS_9allocatorIcEEEEEES9_EEPvEENS_21__map_node_destructorINS7_ISD_EEEEEC2B8ne180100IRSE_SH_EEOT_OT0_, symObjAddr: 0x91C0, symBinAddr: 0x10000B7A4, symSize: 0x48 }
  - { offsetInCU: 0x1B28C, offset: 0x1B28C, size: 0x8, addend: 0x0, symName: __ZNSt3__122__compressed_pair_elemIPNS_11__tree_nodeINS_12__value_typeINS_4pairIiNS_12basic_stringIcNS_11char_traitsIcEENS_9allocatorIcEEEEEES9_EEPvEELi0ELb0EEC2B8ne180100IRSE_vEEOT_, symObjAddr: 0x9208, symBinAddr: 0x10000B7EC, symSize: 0x24 }
  - { offsetInCU: 0x1B2CE, offset: 0x1B2CE, size: 0x8, addend: 0x0, symName: __ZNSt3__122__compressed_pair_elemINS_21__map_node_destructorINS_9allocatorINS_11__tree_nodeINS_12__value_typeINS_4pairIiNS_12basic_stringIcNS_11char_traitsIcEENS2_IcEEEEEESA_EEPvEEEEEELi1ELb0EEC2B8ne180100ISG_vEEOT_, symObjAddr: 0x922C, symBinAddr: 0x10000B810, symSize: 0x24 }
  - { offsetInCU: 0x1B310, offset: 0x1B310, size: 0x8, addend: 0x0, symName: __ZNSt3__19allocatorINS_11__tree_nodeINS_12__value_typeINS_4pairIiNS_12basic_stringIcNS_11char_traitsIcEENS0_IcEEEEEES8_EEPvEEE9constructB8ne180100IKS9_JRSF_EEEvPT_DpOT0_, symObjAddr: 0x9250, symBinAddr: 0x10000B834, symSize: 0x30 }
  - { offsetInCU: 0x1B366, offset: 0x1B366, size: 0x8, addend: 0x0, symName: __ZNSt3__14pairIiNS_12basic_stringIcNS_11char_traitsIcEENS_9allocatorIcEEEEEC1B8ne180100ERKS7_, symObjAddr: 0x9280, symBinAddr: 0x10000B864, symSize: 0x34 }
  - { offsetInCU: 0x1B39B, offset: 0x1B39B, size: 0x8, addend: 0x0, symName: __ZNSt3__14pairIiNS_12basic_stringIcNS_11char_traitsIcEENS_9allocatorIcEEEEEC2B8ne180100ERKS7_, symObjAddr: 0x92B4, symBinAddr: 0x10000B898, symSize: 0x48 }
  - { offsetInCU: 0x1B3D0, offset: 0x1B3D0, size: 0x8, addend: 0x0, symName: __ZNKSt3__117__compressed_pairIPNS_11__tree_nodeINS_12__value_typeINS_4pairIiNS_12basic_stringIcNS_11char_traitsIcEENS_9allocatorIcEEEEEES9_EEPvEENS_21__map_node_destructorINS7_ISD_EEEEE5firstB8ne180100Ev, symObjAddr: 0x92FC, symBinAddr: 0x10000B8E0, symSize: 0x24 }
  - { offsetInCU: 0x1B3F6, offset: 0x1B3F6, size: 0x8, addend: 0x0, symName: __ZNKSt3__122__compressed_pair_elemIPNS_11__tree_nodeINS_12__value_typeINS_4pairIiNS_12basic_stringIcNS_11char_traitsIcEENS_9allocatorIcEEEEEES9_EEPvEELi0ELb0EE5__getB8ne180100Ev, symObjAddr: 0x9320, symBinAddr: 0x10000B904, symSize: 0x14 }
  - { offsetInCU: 0x1B41C, offset: 0x1B41C, size: 0x8, addend: 0x0, symName: __ZNSt3__117__compressed_pairIPNS_11__tree_nodeINS_12__value_typeINS_4pairIiNS_12basic_stringIcNS_11char_traitsIcEENS_9allocatorIcEEEEEES9_EEPvEENS_21__map_node_destructorINS7_ISD_EEEEE6secondB8ne180100Ev, symObjAddr: 0x9334, symBinAddr: 0x10000B918, symSize: 0x28 }
  - { offsetInCU: 0x1B442, offset: 0x1B442, size: 0x8, addend: 0x0, symName: __ZNSt3__122__compressed_pair_elemINS_21__map_node_destructorINS_9allocatorINS_11__tree_nodeINS_12__value_typeINS_4pairIiNS_12basic_stringIcNS_11char_traitsIcEENS2_IcEEEEEESA_EEPvEEEEEELi1ELb0EE5__getB8ne180100Ev, symObjAddr: 0x935C, symBinAddr: 0x10000B940, symSize: 0x14 }
  - { offsetInCU: 0x1B468, offset: 0x1B468, size: 0x8, addend: 0x0, symName: __ZNSt3__19allocatorINS_11__tree_nodeINS_12__value_typeINS_4pairIiNS_12basic_stringIcNS_11char_traitsIcEENS0_IcEEEEEES8_EEPvEEE9constructB8ne180100IS8_JEEEvPT_DpOT0_, symObjAddr: 0x9370, symBinAddr: 0x10000B954, symSize: 0x28 }
  - { offsetInCU: 0x1B4AA, offset: 0x1B4AA, size: 0x8, addend: 0x0, symName: __ZNSt3__16__treeINS_12__value_typeINS_4pairIiNS_12basic_stringIcNS_11char_traitsIcEENS_9allocatorIcEEEEEES8_EENS_19__map_value_compareIS9_SA_NS_4lessIS9_EELb1EEENS6_ISA_EEE4sizeB8ne180100Ev, symObjAddr: 0x9398, symBinAddr: 0x10000B97C, symSize: 0x28 }
  - { offsetInCU: 0x1B4D0, offset: 0x1B4D0, size: 0x8, addend: 0x0, symName: __ZNSt3__117__compressed_pairImNS_19__map_value_compareINS_4pairIiNS_12basic_stringIcNS_11char_traitsIcEENS_9allocatorIcEEEEEENS_12__value_typeIS9_S8_EENS_4lessIS9_EELb1EEEE5firstB8ne180100Ev, symObjAddr: 0x93C0, symBinAddr: 0x10000B9A4, symSize: 0x24 }
  - { offsetInCU: 0x1B4F6, offset: 0x1B4F6, size: 0x8, addend: 0x0, symName: __ZNSt3__117__compressed_pairIPNS_11__tree_nodeINS_12__value_typeINS_4pairIiNS_12basic_stringIcNS_11char_traitsIcEENS_9allocatorIcEEEEEES9_EEPvEENS_21__map_node_destructorINS7_ISD_EEEEE5firstB8ne180100Ev, symObjAddr: 0x93E4, symBinAddr: 0x10000B9C8, symSize: 0x24 }
  - { offsetInCU: 0x1B51C, offset: 0x1B51C, size: 0x8, addend: 0x0, symName: __ZNSt3__122__compressed_pair_elemIPNS_11__tree_nodeINS_12__value_typeINS_4pairIiNS_12basic_stringIcNS_11char_traitsIcEENS_9allocatorIcEEEEEES9_EEPvEELi0ELb0EE5__getB8ne180100Ev, symObjAddr: 0x9408, symBinAddr: 0x10000B9EC, symSize: 0x14 }
  - { offsetInCU: 0x1B542, offset: 0x1B542, size: 0x8, addend: 0x0, symName: __ZNSt3__110unique_ptrINS_11__tree_nodeINS_12__value_typeINS_4pairIiNS_12basic_stringIcNS_11char_traitsIcEENS_9allocatorIcEEEEEES9_EEPvEENS_21__map_node_destructorINS7_ISD_EEEEED2B8ne180100Ev, symObjAddr: 0x941C, symBinAddr: 0x10000BA00, symSize: 0x30 }
  - { offsetInCU: 0x1B56C, offset: 0x1B56C, size: 0x8, addend: 0x0, symName: __ZNSt3__110unique_ptrINS_11__tree_nodeINS_12__value_typeINS_4pairIiNS_12basic_stringIcNS_11char_traitsIcEENS_9allocatorIcEEEEEES9_EEPvEENS_21__map_node_destructorINS7_ISD_EEEEE5resetB8ne180100EPSD_, symObjAddr: 0x944C, symBinAddr: 0x10000BA30, symSize: 0x78 }
  - { offsetInCU: 0x1B5B0, offset: 0x1B5B0, size: 0x8, addend: 0x0, symName: __ZNSt3__121__map_node_destructorINS_9allocatorINS_11__tree_nodeINS_12__value_typeINS_4pairIiNS_12basic_stringIcNS_11char_traitsIcEENS1_IcEEEEEES9_EEPvEEEEEclB8ne180100EPSD_, symObjAddr: 0x94C4, symBinAddr: 0x10000BAA8, symSize: 0xE4 }
  - { offsetInCU: 0x1B5E5, offset: 0x1B5E5, size: 0x8, addend: 0x0, symName: __ZNSt3__116allocator_traitsINS_9allocatorINS_11__tree_nodeINS_12__value_typeINS_4pairIiNS_12basic_stringIcNS_11char_traitsIcEENS1_IcEEEEEES9_EEPvEEEEE7destroyB8ne180100IS9_vvEEvRSE_PT_, symObjAddr: 0x95A8, symBinAddr: 0x10000BB8C, symSize: 0x28 }
  - { offsetInCU: 0x1B620, offset: 0x1B620, size: 0x8, addend: 0x0, symName: __ZNSt3__116allocator_traitsINS_9allocatorINS_11__tree_nodeINS_12__value_typeINS_4pairIiNS_12basic_stringIcNS_11char_traitsIcEENS1_IcEEEEEES9_EEPvEEEEE7destroyB8ne180100IKSA_vvEEvRSE_PT_, symObjAddr: 0x95D0, symBinAddr: 0x10000BBB4, symSize: 0x28 }
  - { offsetInCU: 0x1B65B, offset: 0x1B65B, size: 0x8, addend: 0x0, symName: __ZNSt3__111char_traitsIcE6lengthB8ne180100EPKc, symObjAddr: 0x961C, symBinAddr: 0x10000BC00, symSize: 0x48 }
  - { offsetInCU: 0x1B67E, offset: 0x1B67E, size: 0x8, addend: 0x0, symName: __ZNSt3__13mapINS_12basic_stringIcNS_11char_traitsIcEENS_9allocatorIcEEEEiNS_4lessIS6_EENS4_INS_4pairIKS6_iEEEEEC2B8ne180100Ev, symObjAddr: 0x9688, symBinAddr: 0x10000BC6C, symSize: 0x40 }
  - { offsetInCU: 0x1B6A8, offset: 0x1B6A8, size: 0x8, addend: 0x0, symName: __ZNSt3__119__map_value_compareINS_12basic_stringIcNS_11char_traitsIcEENS_9allocatorIcEEEENS_12__value_typeIS6_iEENS_4lessIS6_EELb1EEC1B8ne180100ESA_, symObjAddr: 0x96C8, symBinAddr: 0x10000BCAC, symSize: 0x2C }
  - { offsetInCU: 0x1B6E1, offset: 0x1B6E1, size: 0x8, addend: 0x0, symName: __ZNSt3__16__treeINS_12__value_typeINS_12basic_stringIcNS_11char_traitsIcEENS_9allocatorIcEEEEiEENS_19__map_value_compareIS7_S8_NS_4lessIS7_EELb1EEENS5_IS8_EEEC1ERKSC_, symObjAddr: 0x96F4, symBinAddr: 0x10000BCD8, symSize: 0x34 }
  - { offsetInCU: 0x1B71C, offset: 0x1B71C, size: 0x8, addend: 0x0, symName: __ZNSt3__119__map_value_compareINS_12basic_stringIcNS_11char_traitsIcEENS_9allocatorIcEEEENS_12__value_typeIS6_iEENS_4lessIS6_EELb1EEC2B8ne180100ESA_, symObjAddr: 0x9728, symBinAddr: 0x10000BD0C, symSize: 0x14 }
  - { offsetInCU: 0x1B755, offset: 0x1B755, size: 0x8, addend: 0x0, symName: __ZNSt3__16__treeINS_12__value_typeINS_12basic_stringIcNS_11char_traitsIcEENS_9allocatorIcEEEEiEENS_19__map_value_compareIS7_S8_NS_4lessIS7_EELb1EEENS5_IS8_EEEC2ERKSC_, symObjAddr: 0x973C, symBinAddr: 0x10000BD20, symSize: 0x70 }
  - { offsetInCU: 0x1B790, offset: 0x1B790, size: 0x8, addend: 0x0, symName: __ZNSt3__117__compressed_pairINS_15__tree_end_nodeIPNS_16__tree_node_baseIPvEEEENS_9allocatorINS_11__tree_nodeINS_12__value_typeINS_12basic_stringIcNS_11char_traitsIcEENS7_IcEEEEiEES3_EEEEEC1B8ne180100ILb1EvEEv, symObjAddr: 0x97AC, symBinAddr: 0x10000BD90, symSize: 0x2C }
  - { offsetInCU: 0x1B7C5, offset: 0x1B7C5, size: 0x8, addend: 0x0, symName: __ZNSt3__117__compressed_pairImNS_19__map_value_compareINS_12basic_stringIcNS_11char_traitsIcEENS_9allocatorIcEEEENS_12__value_typeIS7_iEENS_4lessIS7_EELb1EEEEC1B8ne180100IiRKSC_EEOT_OT0_, symObjAddr: 0x97D8, symBinAddr: 0x10000BDBC, symSize: 0x3C }
  - { offsetInCU: 0x1B81D, offset: 0x1B81D, size: 0x8, addend: 0x0, symName: __ZNSt3__16__treeINS_12__value_typeINS_12basic_stringIcNS_11char_traitsIcEENS_9allocatorIcEEEEiEENS_19__map_value_compareIS7_S8_NS_4lessIS7_EELb1EEENS5_IS8_EEE10__end_nodeB8ne180100Ev, symObjAddr: 0x9814, symBinAddr: 0x10000BDF8, symSize: 0x2C }
  - { offsetInCU: 0x1B843, offset: 0x1B843, size: 0x8, addend: 0x0, symName: __ZNSt3__16__treeINS_12__value_typeINS_12basic_stringIcNS_11char_traitsIcEENS_9allocatorIcEEEEiEENS_19__map_value_compareIS7_S8_NS_4lessIS7_EELb1EEENS5_IS8_EEE12__begin_nodeB8ne180100Ev, symObjAddr: 0x9840, symBinAddr: 0x10000BE24, symSize: 0x14 }
  - { offsetInCU: 0x1B869, offset: 0x1B869, size: 0x8, addend: 0x0, symName: __ZNSt3__117__compressed_pairINS_15__tree_end_nodeIPNS_16__tree_node_baseIPvEEEENS_9allocatorINS_11__tree_nodeINS_12__value_typeINS_12basic_stringIcNS_11char_traitsIcEENS7_IcEEEEiEES3_EEEEEC2B8ne180100ILb1EvEEv, symObjAddr: 0x9854, symBinAddr: 0x10000BE38, symSize: 0x34 }
  - { offsetInCU: 0x1B89E, offset: 0x1B89E, size: 0x8, addend: 0x0, symName: __ZNSt3__122__compressed_pair_elemINS_9allocatorINS_11__tree_nodeINS_12__value_typeINS_12basic_stringIcNS_11char_traitsIcEENS1_IcEEEEiEEPvEEEELi1ELb1EEC2B8ne180100ENS_16__value_init_tagE, symObjAddr: 0x9888, symBinAddr: 0x10000BE6C, symSize: 0x2C }
  - { offsetInCU: 0x1B8D3, offset: 0x1B8D3, size: 0x8, addend: 0x0, symName: __ZNSt3__19allocatorINS_11__tree_nodeINS_12__value_typeINS_12basic_stringIcNS_11char_traitsIcEENS0_IcEEEEiEEPvEEEC2B8ne180100Ev, symObjAddr: 0x98B4, symBinAddr: 0x10000BE98, symSize: 0x2C }
  - { offsetInCU: 0x1B8FD, offset: 0x1B8FD, size: 0x8, addend: 0x0, symName: __ZNSt3__116__non_trivial_ifILb1ENS_9allocatorINS_11__tree_nodeINS_12__value_typeINS_12basic_stringIcNS_11char_traitsIcEENS1_IcEEEEiEEPvEEEEEC2B8ne180100Ev, symObjAddr: 0x98E0, symBinAddr: 0x10000BEC4, symSize: 0x14 }
  - { offsetInCU: 0x1B927, offset: 0x1B927, size: 0x8, addend: 0x0, symName: __ZNSt3__117__compressed_pairImNS_19__map_value_compareINS_12basic_stringIcNS_11char_traitsIcEENS_9allocatorIcEEEENS_12__value_typeIS7_iEENS_4lessIS7_EELb1EEEEC2B8ne180100IiRKSC_EEOT_OT0_, symObjAddr: 0x98F4, symBinAddr: 0x10000BED8, symSize: 0x44 }
  - { offsetInCU: 0x1B97F, offset: 0x1B97F, size: 0x8, addend: 0x0, symName: __ZNSt3__122__compressed_pair_elemINS_19__map_value_compareINS_12basic_stringIcNS_11char_traitsIcEENS_9allocatorIcEEEENS_12__value_typeIS7_iEENS_4lessIS7_EELb1EEELi1ELb1EEC2B8ne180100IRKSC_vEEOT_, symObjAddr: 0x9938, symBinAddr: 0x10000BF1C, symSize: 0x18 }
  - { offsetInCU: 0x1B9C1, offset: 0x1B9C1, size: 0x8, addend: 0x0, symName: __ZNSt3__117__compressed_pairINS_15__tree_end_nodeIPNS_16__tree_node_baseIPvEEEENS_9allocatorINS_11__tree_nodeINS_12__value_typeINS_12basic_stringIcNS_11char_traitsIcEENS7_IcEEEEiEES3_EEEEE5firstB8ne180100Ev, symObjAddr: 0x9950, symBinAddr: 0x10000BF34, symSize: 0x24 }
  - { offsetInCU: 0x1B9E7, offset: 0x1B9E7, size: 0x8, addend: 0x0, symName: __ZNSt3__13mapINS_12basic_stringIcNS_11char_traitsIcEENS_9allocatorIcEEEEiNS_4lessIS6_EENS4_INS_4pairIKS6_iEEEEED2B8ne180100Ev, symObjAddr: 0x9974, symBinAddr: 0x10000BF58, symSize: 0x2C }
  - { offsetInCU: 0x1BA11, offset: 0x1BA11, size: 0x8, addend: 0x0, symName: __ZNSt3__16__treeINS_12__value_typeINS_12basic_stringIcNS_11char_traitsIcEENS_9allocatorIcEEEEiEENS_19__map_value_compareIS7_S8_NS_4lessIS7_EELb1EEENS5_IS8_EEED1Ev, symObjAddr: 0x99A0, symBinAddr: 0x10000BF84, symSize: 0x2C }
  - { offsetInCU: 0x1BA3D, offset: 0x1BA3D, size: 0x8, addend: 0x0, symName: __ZNSt3__16__treeINS_12__value_typeINS_12basic_stringIcNS_11char_traitsIcEENS_9allocatorIcEEEEiEENS_19__map_value_compareIS7_S8_NS_4lessIS7_EELb1EEENS5_IS8_EEED2Ev, symObjAddr: 0x99CC, symBinAddr: 0x10000BFB0, symSize: 0x38 }
  - { offsetInCU: 0x1BA69, offset: 0x1BA69, size: 0x8, addend: 0x0, symName: __ZNSt3__16__treeINS_12__value_typeINS_12basic_stringIcNS_11char_traitsIcEENS_9allocatorIcEEEEiEENS_19__map_value_compareIS7_S8_NS_4lessIS7_EELb1EEENS5_IS8_EEE7destroyEPNS_11__tree_nodeIS8_PvEE, symObjAddr: 0x9A04, symBinAddr: 0x10000BFE8, symSize: 0xC0 }
  - { offsetInCU: 0x1BABD, offset: 0x1BABD, size: 0x8, addend: 0x0, symName: __ZNKSt3__16__treeINS_12__value_typeINS_12basic_stringIcNS_11char_traitsIcEENS_9allocatorIcEEEEiEENS_19__map_value_compareIS7_S8_NS_4lessIS7_EELb1EEENS5_IS8_EEE6__rootB8ne180100Ev, symObjAddr: 0x9AC4, symBinAddr: 0x10000C0A8, symSize: 0x28 }
  - { offsetInCU: 0x1BAE3, offset: 0x1BAE3, size: 0x8, addend: 0x0, symName: __ZNSt3__16__treeINS_12__value_typeINS_12basic_stringIcNS_11char_traitsIcEENS_9allocatorIcEEEEiEENS_19__map_value_compareIS7_S8_NS_4lessIS7_EELb1EEENS5_IS8_EEE12__node_allocB8ne180100Ev, symObjAddr: 0x9AEC, symBinAddr: 0x10000C0D0, symSize: 0x28 }
  - { offsetInCU: 0x1BB09, offset: 0x1BB09, size: 0x8, addend: 0x0, symName: __ZNSt3__116allocator_traitsINS_9allocatorINS_11__tree_nodeINS_12__value_typeINS_12basic_stringIcNS_11char_traitsIcEENS1_IcEEEEiEEPvEEEEE7destroyB8ne180100INS_4pairIKS8_iEEvvEEvRSC_PT_, symObjAddr: 0x9B14, symBinAddr: 0x10000C0F8, symSize: 0x28 }
  - { offsetInCU: 0x1BB44, offset: 0x1BB44, size: 0x8, addend: 0x0, symName: __ZNSt3__122__tree_key_value_typesINS_12__value_typeINS_12basic_stringIcNS_11char_traitsIcEENS_9allocatorIcEEEEiEEE9__get_ptrB8ne180100ERS8_, symObjAddr: 0x9B3C, symBinAddr: 0x10000C120, symSize: 0x24 }
  - { offsetInCU: 0x1BB68, offset: 0x1BB68, size: 0x8, addend: 0x0, symName: __ZNSt3__116allocator_traitsINS_9allocatorINS_11__tree_nodeINS_12__value_typeINS_12basic_stringIcNS_11char_traitsIcEENS1_IcEEEEiEEPvEEEEE10deallocateB8ne180100ERSC_PSB_m, symObjAddr: 0x9B60, symBinAddr: 0x10000C144, symSize: 0x34 }
  - { offsetInCU: 0x1BBAA, offset: 0x1BBAA, size: 0x8, addend: 0x0, symName: __ZNSt3__117__compressed_pairINS_15__tree_end_nodeIPNS_16__tree_node_baseIPvEEEENS_9allocatorINS_11__tree_nodeINS_12__value_typeINS_12basic_stringIcNS_11char_traitsIcEENS7_IcEEEEiEES3_EEEEE6secondB8ne180100Ev, symObjAddr: 0x9B94, symBinAddr: 0x10000C178, symSize: 0x24 }
  - { offsetInCU: 0x1BBD0, offset: 0x1BBD0, size: 0x8, addend: 0x0, symName: __ZNSt3__122__compressed_pair_elemINS_9allocatorINS_11__tree_nodeINS_12__value_typeINS_12basic_stringIcNS_11char_traitsIcEENS1_IcEEEEiEEPvEEEELi1ELb1EE5__getB8ne180100Ev, symObjAddr: 0x9BB8, symBinAddr: 0x10000C19C, symSize: 0x14 }
  - { offsetInCU: 0x1BBF6, offset: 0x1BBF6, size: 0x8, addend: 0x0, symName: __ZNSt3__14pairIKNS_12basic_stringIcNS_11char_traitsIcEENS_9allocatorIcEEEEiED1Ev, symObjAddr: 0x9BF0, symBinAddr: 0x10000C1D4, symSize: 0x2C }
  - { offsetInCU: 0x1BC22, offset: 0x1BC22, size: 0x8, addend: 0x0, symName: __ZNSt3__14pairIKNS_12basic_stringIcNS_11char_traitsIcEENS_9allocatorIcEEEEiED2Ev, symObjAddr: 0x9C1C, symBinAddr: 0x10000C200, symSize: 0x2C }
  - { offsetInCU: 0x1BC4E, offset: 0x1BC4E, size: 0x8, addend: 0x0, symName: __ZNSt3__112__value_typeINS_12basic_stringIcNS_11char_traitsIcEENS_9allocatorIcEEEEiE11__get_valueB8ne180100Ev, symObjAddr: 0x9C48, symBinAddr: 0x10000C22C, symSize: 0x14 }
  - { offsetInCU: 0x1BC74, offset: 0x1BC74, size: 0x8, addend: 0x0, symName: __ZNSt3__19allocatorINS_11__tree_nodeINS_12__value_typeINS_12basic_stringIcNS_11char_traitsIcEENS0_IcEEEEiEEPvEEE10deallocateB8ne180100EPSA_m, symObjAddr: 0x9C5C, symBinAddr: 0x10000C240, symSize: 0x70 }
  - { offsetInCU: 0x1BCB6, offset: 0x1BCB6, size: 0x8, addend: 0x0, symName: __ZNKSt3__16__treeINS_12__value_typeINS_12basic_stringIcNS_11char_traitsIcEENS_9allocatorIcEEEEiEENS_19__map_value_compareIS7_S8_NS_4lessIS7_EELb1EEENS5_IS8_EEE10__end_nodeB8ne180100Ev, symObjAddr: 0x9CCC, symBinAddr: 0x10000C2B0, symSize: 0x2C }
  - { offsetInCU: 0x1BCDC, offset: 0x1BCDC, size: 0x8, addend: 0x0, symName: __ZNKSt3__117__compressed_pairINS_15__tree_end_nodeIPNS_16__tree_node_baseIPvEEEENS_9allocatorINS_11__tree_nodeINS_12__value_typeINS_12basic_stringIcNS_11char_traitsIcEENS7_IcEEEEiEES3_EEEEE5firstB8ne180100Ev, symObjAddr: 0x9CF8, symBinAddr: 0x10000C2DC, symSize: 0x24 }
  - { offsetInCU: 0x1BD02, offset: 0x1BD02, size: 0x8, addend: 0x0, symName: __ZNSt3__13mapINS_4pairIiNS_12basic_stringIcNS_11char_traitsIcEENS_9allocatorIcEEEEEEiNS_4lessIS8_EENS5_INS1_IKS8_iEEEEEC2B8ne180100Ev, symObjAddr: 0x9D1C, symBinAddr: 0x10000C300, symSize: 0x40 }
  - { offsetInCU: 0x1BD2C, offset: 0x1BD2C, size: 0x8, addend: 0x0, symName: __ZNSt3__119__map_value_compareINS_4pairIiNS_12basic_stringIcNS_11char_traitsIcEENS_9allocatorIcEEEEEENS_12__value_typeIS8_iEENS_4lessIS8_EELb1EEC1B8ne180100ESC_, symObjAddr: 0x9D5C, symBinAddr: 0x10000C340, symSize: 0x2C }
  - { offsetInCU: 0x1BD65, offset: 0x1BD65, size: 0x8, addend: 0x0, symName: __ZNSt3__16__treeINS_12__value_typeINS_4pairIiNS_12basic_stringIcNS_11char_traitsIcEENS_9allocatorIcEEEEEEiEENS_19__map_value_compareIS9_SA_NS_4lessIS9_EELb1EEENS6_ISA_EEEC1ERKSE_, symObjAddr: 0x9D88, symBinAddr: 0x10000C36C, symSize: 0x34 }
  - { offsetInCU: 0x1BDA0, offset: 0x1BDA0, size: 0x8, addend: 0x0, symName: __ZNSt3__119__map_value_compareINS_4pairIiNS_12basic_stringIcNS_11char_traitsIcEENS_9allocatorIcEEEEEENS_12__value_typeIS8_iEENS_4lessIS8_EELb1EEC2B8ne180100ESC_, symObjAddr: 0x9DBC, symBinAddr: 0x10000C3A0, symSize: 0x14 }
  - { offsetInCU: 0x1BDD9, offset: 0x1BDD9, size: 0x8, addend: 0x0, symName: __ZNSt3__16__treeINS_12__value_typeINS_4pairIiNS_12basic_stringIcNS_11char_traitsIcEENS_9allocatorIcEEEEEEiEENS_19__map_value_compareIS9_SA_NS_4lessIS9_EELb1EEENS6_ISA_EEEC2ERKSE_, symObjAddr: 0x9DD0, symBinAddr: 0x10000C3B4, symSize: 0x70 }
  - { offsetInCU: 0x1BE14, offset: 0x1BE14, size: 0x8, addend: 0x0, symName: __ZNSt3__117__compressed_pairINS_15__tree_end_nodeIPNS_16__tree_node_baseIPvEEEENS_9allocatorINS_11__tree_nodeINS_12__value_typeINS_4pairIiNS_12basic_stringIcNS_11char_traitsIcEENS7_IcEEEEEEiEES3_EEEEEC1B8ne180100ILb1EvEEv, symObjAddr: 0x9E40, symBinAddr: 0x10000C424, symSize: 0x2C }
  - { offsetInCU: 0x1BE49, offset: 0x1BE49, size: 0x8, addend: 0x0, symName: __ZNSt3__117__compressed_pairImNS_19__map_value_compareINS_4pairIiNS_12basic_stringIcNS_11char_traitsIcEENS_9allocatorIcEEEEEENS_12__value_typeIS9_iEENS_4lessIS9_EELb1EEEEC1B8ne180100IiRKSE_EEOT_OT0_, symObjAddr: 0x9E6C, symBinAddr: 0x10000C450, symSize: 0x3C }
  - { offsetInCU: 0x1BEA1, offset: 0x1BEA1, size: 0x8, addend: 0x0, symName: __ZNSt3__16__treeINS_12__value_typeINS_4pairIiNS_12basic_stringIcNS_11char_traitsIcEENS_9allocatorIcEEEEEEiEENS_19__map_value_compareIS9_SA_NS_4lessIS9_EELb1EEENS6_ISA_EEE10__end_nodeB8ne180100Ev, symObjAddr: 0x9EA8, symBinAddr: 0x10000C48C, symSize: 0x2C }
  - { offsetInCU: 0x1BEC7, offset: 0x1BEC7, size: 0x8, addend: 0x0, symName: __ZNSt3__16__treeINS_12__value_typeINS_4pairIiNS_12basic_stringIcNS_11char_traitsIcEENS_9allocatorIcEEEEEEiEENS_19__map_value_compareIS9_SA_NS_4lessIS9_EELb1EEENS6_ISA_EEE12__begin_nodeB8ne180100Ev, symObjAddr: 0x9ED4, symBinAddr: 0x10000C4B8, symSize: 0x14 }
  - { offsetInCU: 0x1BEED, offset: 0x1BEED, size: 0x8, addend: 0x0, symName: __ZNSt3__117__compressed_pairINS_15__tree_end_nodeIPNS_16__tree_node_baseIPvEEEENS_9allocatorINS_11__tree_nodeINS_12__value_typeINS_4pairIiNS_12basic_stringIcNS_11char_traitsIcEENS7_IcEEEEEEiEES3_EEEEEC2B8ne180100ILb1EvEEv, symObjAddr: 0x9EE8, symBinAddr: 0x10000C4CC, symSize: 0x34 }
  - { offsetInCU: 0x1BF22, offset: 0x1BF22, size: 0x8, addend: 0x0, symName: __ZNSt3__122__compressed_pair_elemINS_9allocatorINS_11__tree_nodeINS_12__value_typeINS_4pairIiNS_12basic_stringIcNS_11char_traitsIcEENS1_IcEEEEEEiEEPvEEEELi1ELb1EEC2B8ne180100ENS_16__value_init_tagE, symObjAddr: 0x9F1C, symBinAddr: 0x10000C500, symSize: 0x2C }
  - { offsetInCU: 0x1BF57, offset: 0x1BF57, size: 0x8, addend: 0x0, symName: __ZNSt3__19allocatorINS_11__tree_nodeINS_12__value_typeINS_4pairIiNS_12basic_stringIcNS_11char_traitsIcEENS0_IcEEEEEEiEEPvEEEC2B8ne180100Ev, symObjAddr: 0x9F48, symBinAddr: 0x10000C52C, symSize: 0x2C }
  - { offsetInCU: 0x1BF81, offset: 0x1BF81, size: 0x8, addend: 0x0, symName: __ZNSt3__116__non_trivial_ifILb1ENS_9allocatorINS_11__tree_nodeINS_12__value_typeINS_4pairIiNS_12basic_stringIcNS_11char_traitsIcEENS1_IcEEEEEEiEEPvEEEEEC2B8ne180100Ev, symObjAddr: 0x9F74, symBinAddr: 0x10000C558, symSize: 0x14 }
  - { offsetInCU: 0x1BFAB, offset: 0x1BFAB, size: 0x8, addend: 0x0, symName: __ZNSt3__117__compressed_pairImNS_19__map_value_compareINS_4pairIiNS_12basic_stringIcNS_11char_traitsIcEENS_9allocatorIcEEEEEENS_12__value_typeIS9_iEENS_4lessIS9_EELb1EEEEC2B8ne180100IiRKSE_EEOT_OT0_, symObjAddr: 0x9F88, symBinAddr: 0x10000C56C, symSize: 0x44 }
  - { offsetInCU: 0x1C003, offset: 0x1C003, size: 0x8, addend: 0x0, symName: __ZNSt3__122__compressed_pair_elemINS_19__map_value_compareINS_4pairIiNS_12basic_stringIcNS_11char_traitsIcEENS_9allocatorIcEEEEEENS_12__value_typeIS9_iEENS_4lessIS9_EELb1EEELi1ELb1EEC2B8ne180100IRKSE_vEEOT_, symObjAddr: 0x9FCC, symBinAddr: 0x10000C5B0, symSize: 0x18 }
  - { offsetInCU: 0x1C045, offset: 0x1C045, size: 0x8, addend: 0x0, symName: __ZNSt3__117__compressed_pairINS_15__tree_end_nodeIPNS_16__tree_node_baseIPvEEEENS_9allocatorINS_11__tree_nodeINS_12__value_typeINS_4pairIiNS_12basic_stringIcNS_11char_traitsIcEENS7_IcEEEEEEiEES3_EEEEE5firstB8ne180100Ev, symObjAddr: 0x9FE4, symBinAddr: 0x10000C5C8, symSize: 0x24 }
  - { offsetInCU: 0x1C06B, offset: 0x1C06B, size: 0x8, addend: 0x0, symName: __ZNSt3__13mapINS_4pairIiNS_12basic_stringIcNS_11char_traitsIcEENS_9allocatorIcEEEEEEiNS_4lessIS8_EENS5_INS1_IKS8_iEEEEED2B8ne180100Ev, symObjAddr: 0xA008, symBinAddr: 0x10000C5EC, symSize: 0x2C }
  - { offsetInCU: 0x1C095, offset: 0x1C095, size: 0x8, addend: 0x0, symName: __ZNSt3__16__treeINS_12__value_typeINS_4pairIiNS_12basic_stringIcNS_11char_traitsIcEENS_9allocatorIcEEEEEEiEENS_19__map_value_compareIS9_SA_NS_4lessIS9_EELb1EEENS6_ISA_EEED1Ev, symObjAddr: 0xA034, symBinAddr: 0x10000C618, symSize: 0x2C }
  - { offsetInCU: 0x1C0C1, offset: 0x1C0C1, size: 0x8, addend: 0x0, symName: __ZNSt3__16__treeINS_12__value_typeINS_4pairIiNS_12basic_stringIcNS_11char_traitsIcEENS_9allocatorIcEEEEEEiEENS_19__map_value_compareIS9_SA_NS_4lessIS9_EELb1EEENS6_ISA_EEED2Ev, symObjAddr: 0xA060, symBinAddr: 0x10000C644, symSize: 0x38 }
  - { offsetInCU: 0x1C0ED, offset: 0x1C0ED, size: 0x8, addend: 0x0, symName: __ZNSt3__16__treeINS_12__value_typeINS_4pairIiNS_12basic_stringIcNS_11char_traitsIcEENS_9allocatorIcEEEEEEiEENS_19__map_value_compareIS9_SA_NS_4lessIS9_EELb1EEENS6_ISA_EEE7destroyEPNS_11__tree_nodeISA_PvEE, symObjAddr: 0xA098, symBinAddr: 0x10000C67C, symSize: 0xC0 }
  - { offsetInCU: 0x1C141, offset: 0x1C141, size: 0x8, addend: 0x0, symName: __ZNKSt3__16__treeINS_12__value_typeINS_4pairIiNS_12basic_stringIcNS_11char_traitsIcEENS_9allocatorIcEEEEEEiEENS_19__map_value_compareIS9_SA_NS_4lessIS9_EELb1EEENS6_ISA_EEE6__rootB8ne180100Ev, symObjAddr: 0xA158, symBinAddr: 0x10000C73C, symSize: 0x28 }
  - { offsetInCU: 0x1C167, offset: 0x1C167, size: 0x8, addend: 0x0, symName: __ZNSt3__16__treeINS_12__value_typeINS_4pairIiNS_12basic_stringIcNS_11char_traitsIcEENS_9allocatorIcEEEEEEiEENS_19__map_value_compareIS9_SA_NS_4lessIS9_EELb1EEENS6_ISA_EEE12__node_allocB8ne180100Ev, symObjAddr: 0xA180, symBinAddr: 0x10000C764, symSize: 0x28 }
  - { offsetInCU: 0x1C18D, offset: 0x1C18D, size: 0x8, addend: 0x0, symName: __ZNSt3__116allocator_traitsINS_9allocatorINS_11__tree_nodeINS_12__value_typeINS_4pairIiNS_12basic_stringIcNS_11char_traitsIcEENS1_IcEEEEEEiEEPvEEEEE7destroyB8ne180100INS4_IKSA_iEEvvEEvRSE_PT_, symObjAddr: 0xA1A8, symBinAddr: 0x10000C78C, symSize: 0x28 }
  - { offsetInCU: 0x1C1C8, offset: 0x1C1C8, size: 0x8, addend: 0x0, symName: __ZNSt3__122__tree_key_value_typesINS_12__value_typeINS_4pairIiNS_12basic_stringIcNS_11char_traitsIcEENS_9allocatorIcEEEEEEiEEE9__get_ptrB8ne180100ERSA_, symObjAddr: 0xA1D0, symBinAddr: 0x10000C7B4, symSize: 0x24 }
  - { offsetInCU: 0x1C1EC, offset: 0x1C1EC, size: 0x8, addend: 0x0, symName: __ZNSt3__116allocator_traitsINS_9allocatorINS_11__tree_nodeINS_12__value_typeINS_4pairIiNS_12basic_stringIcNS_11char_traitsIcEENS1_IcEEEEEEiEEPvEEEEE10deallocateB8ne180100ERSE_PSD_m, symObjAddr: 0xA1F4, symBinAddr: 0x10000C7D8, symSize: 0x34 }
  - { offsetInCU: 0x1C22E, offset: 0x1C22E, size: 0x8, addend: 0x0, symName: __ZNSt3__117__compressed_pairINS_15__tree_end_nodeIPNS_16__tree_node_baseIPvEEEENS_9allocatorINS_11__tree_nodeINS_12__value_typeINS_4pairIiNS_12basic_stringIcNS_11char_traitsIcEENS7_IcEEEEEEiEES3_EEEEE6secondB8ne180100Ev, symObjAddr: 0xA228, symBinAddr: 0x10000C80C, symSize: 0x24 }
  - { offsetInCU: 0x1C254, offset: 0x1C254, size: 0x8, addend: 0x0, symName: __ZNSt3__122__compressed_pair_elemINS_9allocatorINS_11__tree_nodeINS_12__value_typeINS_4pairIiNS_12basic_stringIcNS_11char_traitsIcEENS1_IcEEEEEEiEEPvEEEELi1ELb1EE5__getB8ne180100Ev, symObjAddr: 0xA24C, symBinAddr: 0x10000C830, symSize: 0x14 }
  - { offsetInCU: 0x1C27A, offset: 0x1C27A, size: 0x8, addend: 0x0, symName: __ZNSt3__14pairIKNS0_IiNS_12basic_stringIcNS_11char_traitsIcEENS_9allocatorIcEEEEEEiED1Ev, symObjAddr: 0xA284, symBinAddr: 0x10000C868, symSize: 0x2C }
  - { offsetInCU: 0x1C2A6, offset: 0x1C2A6, size: 0x8, addend: 0x0, symName: __ZNSt3__14pairIKNS0_IiNS_12basic_stringIcNS_11char_traitsIcEENS_9allocatorIcEEEEEEiED2Ev, symObjAddr: 0xA2B0, symBinAddr: 0x10000C894, symSize: 0x2C }
  - { offsetInCU: 0x1C2D2, offset: 0x1C2D2, size: 0x8, addend: 0x0, symName: __ZNSt3__112__value_typeINS_4pairIiNS_12basic_stringIcNS_11char_traitsIcEENS_9allocatorIcEEEEEEiE11__get_valueB8ne180100Ev, symObjAddr: 0xA2DC, symBinAddr: 0x10000C8C0, symSize: 0x14 }
  - { offsetInCU: 0x1C2F8, offset: 0x1C2F8, size: 0x8, addend: 0x0, symName: __ZNSt3__19allocatorINS_11__tree_nodeINS_12__value_typeINS_4pairIiNS_12basic_stringIcNS_11char_traitsIcEENS0_IcEEEEEEiEEPvEEE10deallocateB8ne180100EPSC_m, symObjAddr: 0xA2F0, symBinAddr: 0x10000C8D4, symSize: 0x74 }
  - { offsetInCU: 0x1C33A, offset: 0x1C33A, size: 0x8, addend: 0x0, symName: __ZNKSt3__16__treeINS_12__value_typeINS_4pairIiNS_12basic_stringIcNS_11char_traitsIcEENS_9allocatorIcEEEEEEiEENS_19__map_value_compareIS9_SA_NS_4lessIS9_EELb1EEENS6_ISA_EEE10__end_nodeB8ne180100Ev, symObjAddr: 0xA364, symBinAddr: 0x10000C948, symSize: 0x2C }
  - { offsetInCU: 0x1C360, offset: 0x1C360, size: 0x8, addend: 0x0, symName: __ZNKSt3__117__compressed_pairINS_15__tree_end_nodeIPNS_16__tree_node_baseIPvEEEENS_9allocatorINS_11__tree_nodeINS_12__value_typeINS_4pairIiNS_12basic_stringIcNS_11char_traitsIcEENS7_IcEEEEEEiEES3_EEEEE5firstB8ne180100Ev, symObjAddr: 0xA390, symBinAddr: 0x10000C974, symSize: 0x24 }
  - { offsetInCU: 0x1C386, offset: 0x1C386, size: 0x8, addend: 0x0, symName: __ZNSt3__112basic_stringIcNS_11char_traitsIcEENS_9allocatorIcEEEC2B8ne180100ILi0EEEPKc, symObjAddr: 0xA3B4, symBinAddr: 0x10000C998, symSize: 0x58 }
  - { offsetInCU: 0x1C3C5, offset: 0x1C3C5, size: 0x8, addend: 0x0, symName: __ZNSt3__16__treeINS_12__value_typeINS_4pairIiNS_12basic_stringIcNS_11char_traitsIcEENS_9allocatorIcEEEEEES8_EENS_19__map_value_compareIS9_SA_NS_4lessIS9_EELb1EEENS6_ISA_EEE4findIS9_EENS_15__tree_iteratorISA_PNS_11__tree_nodeISA_PvEElEERKT_, symObjAddr: 0xA40C, symBinAddr: 0x10000C9F0, symSize: 0xF8 }
  - { offsetInCU: 0x1C414, offset: 0x1C414, size: 0x8, addend: 0x0, symName: __ZNSt3__114__map_iteratorINS_15__tree_iteratorINS_12__value_typeINS_4pairIiNS_12basic_stringIcNS_11char_traitsIcEENS_9allocatorIcEEEEEES9_EEPNS_11__tree_nodeISB_PvEElEEEC1B8ne180100ESG_, symObjAddr: 0xA504, symBinAddr: 0x10000CAE8, symSize: 0x34 }
  - { offsetInCU: 0x1C44D, offset: 0x1C44D, size: 0x8, addend: 0x0, symName: __ZNSt3__16__treeINS_12__value_typeINS_4pairIiNS_12basic_stringIcNS_11char_traitsIcEENS_9allocatorIcEEEEEES8_EENS_19__map_value_compareIS9_SA_NS_4lessIS9_EELb1EEENS6_ISA_EEE13__lower_boundIS9_EENS_15__tree_iteratorISA_PNS_11__tree_nodeISA_PvEElEERKT_SM_PNS_15__tree_end_nodeIPNS_16__tree_node_baseISK_EEEE, symObjAddr: 0xA538, symBinAddr: 0x10000CB1C, symSize: 0xA4 }
  - { offsetInCU: 0x1C4AB, offset: 0x1C4AB, size: 0x8, addend: 0x0, symName: __ZNSt3__16__treeINS_12__value_typeINS_4pairIiNS_12basic_stringIcNS_11char_traitsIcEENS_9allocatorIcEEEEEES8_EENS_19__map_value_compareIS9_SA_NS_4lessIS9_EELb1EEENS6_ISA_EEE3endB8ne180100Ev, symObjAddr: 0xA610, symBinAddr: 0x10000CBF4, symSize: 0x34 }
  - { offsetInCU: 0x1C4D1, offset: 0x1C4D1, size: 0x8, addend: 0x0, symName: __ZNKSt3__115__tree_iteratorINS_12__value_typeINS_4pairIiNS_12basic_stringIcNS_11char_traitsIcEENS_9allocatorIcEEEEEES8_EEPNS_11__tree_nodeISA_PvEElEdeB8ne180100Ev, symObjAddr: 0xA644, symBinAddr: 0x10000CC28, symSize: 0x28 }
  - { offsetInCU: 0x1C4F7, offset: 0x1C4F7, size: 0x8, addend: 0x0, symName: __ZNSt3__115__tree_iteratorINS_12__value_typeINS_4pairIiNS_12basic_stringIcNS_11char_traitsIcEENS_9allocatorIcEEEEEES8_EEPNS_11__tree_nodeISA_PvEElEC1B8ne180100EPNS_15__tree_end_nodeIPNS_16__tree_node_baseISC_EEEE, symObjAddr: 0xA66C, symBinAddr: 0x10000CC50, symSize: 0x34 }
  - { offsetInCU: 0x1C530, offset: 0x1C530, size: 0x8, addend: 0x0, symName: __ZNSt3__115__tree_iteratorINS_12__value_typeINS_4pairIiNS_12basic_stringIcNS_11char_traitsIcEENS_9allocatorIcEEEEEES8_EEPNS_11__tree_nodeISA_PvEElEC2B8ne180100EPNS_15__tree_end_nodeIPNS_16__tree_node_baseISC_EEEE, symObjAddr: 0xA6A0, symBinAddr: 0x10000CC84, symSize: 0x20 }
  - { offsetInCU: 0x1C569, offset: 0x1C569, size: 0x8, addend: 0x0, symName: __ZNKSt3__115__tree_iteratorINS_12__value_typeINS_4pairIiNS_12basic_stringIcNS_11char_traitsIcEENS_9allocatorIcEEEEEES8_EEPNS_11__tree_nodeISA_PvEElE8__get_npB8ne180100Ev, symObjAddr: 0xA6F0, symBinAddr: 0x10000CCD4, symSize: 0x18 }
  - { offsetInCU: 0x1C58F, offset: 0x1C58F, size: 0x8, addend: 0x0, symName: __ZNSt3__114__map_iteratorINS_15__tree_iteratorINS_12__value_typeINS_4pairIiNS_12basic_stringIcNS_11char_traitsIcEENS_9allocatorIcEEEEEES9_EEPNS_11__tree_nodeISB_PvEElEEEC2B8ne180100ESG_, symObjAddr: 0xA708, symBinAddr: 0x10000CCEC, symSize: 0x20 }
  - { offsetInCU: 0x1C5C8, offset: 0x1C5C8, size: 0x8, addend: 0x0, symName: __ZNSt3__16__treeINS_12__value_typeINS_12basic_stringIcNS_11char_traitsIcEENS_9allocatorIcEEEEiEENS_19__map_value_compareIS7_S8_NS_4lessIS7_EELb1EEENS5_IS8_EEE12__find_equalIS7_EERPNS_16__tree_node_baseIPvEERPNS_15__tree_end_nodeISJ_EERKT_, symObjAddr: 0xA728, symBinAddr: 0x10000CD0C, symSize: 0x184 }
  - { offsetInCU: 0x1C635, offset: 0x1C635, size: 0x8, addend: 0x0, symName: __ZNSt3__13mapINS_12basic_stringIcNS_11char_traitsIcEENS_9allocatorIcEEEEiNS_4lessIS6_EENS4_INS_4pairIKS6_iEEEEE25__construct_node_with_keyERSA_, symObjAddr: 0xA8AC, symBinAddr: 0x10000CE90, symSize: 0x144 }
  - { offsetInCU: 0x1C68B, offset: 0x1C68B, size: 0x8, addend: 0x0, symName: __ZNSt3__16__treeINS_12__value_typeINS_12basic_stringIcNS_11char_traitsIcEENS_9allocatorIcEEEEiEENS_19__map_value_compareIS7_S8_NS_4lessIS7_EELb1EEENS5_IS8_EEE16__insert_node_atEPNS_15__tree_end_nodeIPNS_16__tree_node_baseIPvEEEERSJ_SJ_, symObjAddr: 0xA9F0, symBinAddr: 0x10000CFD4, symSize: 0xCC }
  - { offsetInCU: 0x1C6E0, offset: 0x1C6E0, size: 0x8, addend: 0x0, symName: __ZNKSt3__110unique_ptrINS_11__tree_nodeINS_12__value_typeINS_12basic_stringIcNS_11char_traitsIcEENS_9allocatorIcEEEEiEEPvEENS_21__map_node_destructorINS6_ISB_EEEEE3getB8ne180100Ev, symObjAddr: 0xAABC, symBinAddr: 0x10000D0A0, symSize: 0x28 }
  - { offsetInCU: 0x1C706, offset: 0x1C706, size: 0x8, addend: 0x0, symName: __ZNSt3__110unique_ptrINS_11__tree_nodeINS_12__value_typeINS_12basic_stringIcNS_11char_traitsIcEENS_9allocatorIcEEEEiEEPvEENS_21__map_node_destructorINS6_ISB_EEEEE7releaseB8ne180100Ev, symObjAddr: 0xAAE4, symBinAddr: 0x10000D0C8, symSize: 0x44 }
  - { offsetInCU: 0x1C73B, offset: 0x1C73B, size: 0x8, addend: 0x0, symName: __ZNSt3__110unique_ptrINS_11__tree_nodeINS_12__value_typeINS_12basic_stringIcNS_11char_traitsIcEENS_9allocatorIcEEEEiEEPvEENS_21__map_node_destructorINS6_ISB_EEEEED1B8ne180100Ev, symObjAddr: 0xAB28, symBinAddr: 0x10000D10C, symSize: 0x2C }
  - { offsetInCU: 0x1C765, offset: 0x1C765, size: 0x8, addend: 0x0, symName: __ZNKSt3__16__treeINS_12__value_typeINS_12basic_stringIcNS_11char_traitsIcEENS_9allocatorIcEEEEiEENS_19__map_value_compareIS7_S8_NS_4lessIS7_EELb1EEENS5_IS8_EEE10__root_ptrB8ne180100Ev, symObjAddr: 0xAB54, symBinAddr: 0x10000D138, symSize: 0x24 }
  - { offsetInCU: 0x1C78B, offset: 0x1C78B, size: 0x8, addend: 0x0, symName: __ZNSt3__16__treeINS_12__value_typeINS_12basic_stringIcNS_11char_traitsIcEENS_9allocatorIcEEEEiEENS_19__map_value_compareIS7_S8_NS_4lessIS7_EELb1EEENS5_IS8_EEE10value_compB8ne180100Ev, symObjAddr: 0xAB78, symBinAddr: 0x10000D15C, symSize: 0x28 }
  - { offsetInCU: 0x1C7B1, offset: 0x1C7B1, size: 0x8, addend: 0x0, symName: __ZNKSt3__119__map_value_compareINS_12basic_stringIcNS_11char_traitsIcEENS_9allocatorIcEEEENS_12__value_typeIS6_iEENS_4lessIS6_EELb1EEclB8ne180100ERKS6_RKS8_, symObjAddr: 0xABA0, symBinAddr: 0x10000D184, symSize: 0x50 }
  - { offsetInCU: 0x1C7F5, offset: 0x1C7F5, size: 0x8, addend: 0x0, symName: __ZNKSt3__119__map_value_compareINS_12basic_stringIcNS_11char_traitsIcEENS_9allocatorIcEEEENS_12__value_typeIS6_iEENS_4lessIS6_EELb1EEclB8ne180100ERKS8_RKS6_, symObjAddr: 0xABF0, symBinAddr: 0x10000D1D4, symSize: 0x48 }
  - { offsetInCU: 0x1C839, offset: 0x1C839, size: 0x8, addend: 0x0, symName: __ZNSt3__117__compressed_pairImNS_19__map_value_compareINS_12basic_stringIcNS_11char_traitsIcEENS_9allocatorIcEEEENS_12__value_typeIS7_iEENS_4lessIS7_EELb1EEEE6secondB8ne180100Ev, symObjAddr: 0xAC38, symBinAddr: 0x10000D21C, symSize: 0x24 }
  - { offsetInCU: 0x1C85F, offset: 0x1C85F, size: 0x8, addend: 0x0, symName: __ZNSt3__122__compressed_pair_elemINS_19__map_value_compareINS_12basic_stringIcNS_11char_traitsIcEENS_9allocatorIcEEEENS_12__value_typeIS7_iEENS_4lessIS7_EELb1EEELi1ELb1EE5__getB8ne180100Ev, symObjAddr: 0xAC5C, symBinAddr: 0x10000D240, symSize: 0x14 }
  - { offsetInCU: 0x1C885, offset: 0x1C885, size: 0x8, addend: 0x0, symName: __ZNKSt3__14lessINS_12basic_stringIcNS_11char_traitsIcEENS_9allocatorIcEEEEEclB8ne180100ERKS6_S9_, symObjAddr: 0xAC70, symBinAddr: 0x10000D254, symSize: 0x34 }
  - { offsetInCU: 0x1C8C9, offset: 0x1C8C9, size: 0x8, addend: 0x0, symName: __ZNKSt3__112__value_typeINS_12basic_stringIcNS_11char_traitsIcEENS_9allocatorIcEEEEiE11__get_valueB8ne180100Ev, symObjAddr: 0xACA4, symBinAddr: 0x10000D288, symSize: 0x14 }
  - { offsetInCU: 0x1C8EF, offset: 0x1C8EF, size: 0x8, addend: 0x0, symName: __ZNSt3__116allocator_traitsINS_9allocatorINS_11__tree_nodeINS_12__value_typeINS_12basic_stringIcNS_11char_traitsIcEENS1_IcEEEEiEEPvEEEEE8allocateB8ne180100ERSC_m, symObjAddr: 0xACB8, symBinAddr: 0x10000D29C, symSize: 0x2C }
  - { offsetInCU: 0x1C922, offset: 0x1C922, size: 0x8, addend: 0x0, symName: __ZNSt3__121__map_node_destructorINS_9allocatorINS_11__tree_nodeINS_12__value_typeINS_12basic_stringIcNS_11char_traitsIcEENS1_IcEEEEiEEPvEEEEEC1B8ne180100ERSC_, symObjAddr: 0xACE4, symBinAddr: 0x10000D2C8, symSize: 0x34 }
  - { offsetInCU: 0x1C960, offset: 0x1C960, size: 0x8, addend: 0x0, symName: __ZNSt3__110unique_ptrINS_11__tree_nodeINS_12__value_typeINS_12basic_stringIcNS_11char_traitsIcEENS_9allocatorIcEEEEiEEPvEENS_21__map_node_destructorINS6_ISB_EEEEEC1B8ne180100ILb1EvEEPSB_NS_16__dependent_typeINS_27__unique_ptr_deleter_sfinaeISE_EEXT_EE20__good_rval_ref_typeE, symObjAddr: 0xAD18, symBinAddr: 0x10000D2FC, symSize: 0x3C }
  - { offsetInCU: 0x1C9B6, offset: 0x1C9B6, size: 0x8, addend: 0x0, symName: __ZNSt3__116allocator_traitsINS_9allocatorINS_11__tree_nodeINS_12__value_typeINS_12basic_stringIcNS_11char_traitsIcEENS1_IcEEEEiEEPvEEEEE9constructB8ne180100IKS8_JRSF_EvEEvRSC_PT_DpOT0_, symObjAddr: 0xAD54, symBinAddr: 0x10000D338, symSize: 0x34 }
  - { offsetInCU: 0x1CA0D, offset: 0x1CA0D, size: 0x8, addend: 0x0, symName: __ZNKSt3__110unique_ptrINS_11__tree_nodeINS_12__value_typeINS_12basic_stringIcNS_11char_traitsIcEENS_9allocatorIcEEEEiEEPvEENS_21__map_node_destructorINS6_ISB_EEEEEptB8ne180100Ev, symObjAddr: 0xAD88, symBinAddr: 0x10000D36C, symSize: 0x28 }
  - { offsetInCU: 0x1CA33, offset: 0x1CA33, size: 0x8, addend: 0x0, symName: __ZNSt3__110unique_ptrINS_11__tree_nodeINS_12__value_typeINS_12basic_stringIcNS_11char_traitsIcEENS_9allocatorIcEEEEiEEPvEENS_21__map_node_destructorINS6_ISB_EEEEE11get_deleterB8ne180100Ev, symObjAddr: 0xADB0, symBinAddr: 0x10000D394, symSize: 0x24 }
  - { offsetInCU: 0x1CA59, offset: 0x1CA59, size: 0x8, addend: 0x0, symName: __ZNSt3__116allocator_traitsINS_9allocatorINS_11__tree_nodeINS_12__value_typeINS_12basic_stringIcNS_11char_traitsIcEENS1_IcEEEEiEEPvEEEEE9constructB8ne180100IiJEvEEvRSC_PT_DpOT0_, symObjAddr: 0xADD4, symBinAddr: 0x10000D3B8, symSize: 0x2C }
  - { offsetInCU: 0x1CA9B, offset: 0x1CA9B, size: 0x8, addend: 0x0, symName: __ZNSt3__19allocatorINS_11__tree_nodeINS_12__value_typeINS_12basic_stringIcNS_11char_traitsIcEENS0_IcEEEEiEEPvEEE8allocateB8ne180100Em, symObjAddr: 0xAE00, symBinAddr: 0x10000D3E4, symSize: 0x84 }
  - { offsetInCU: 0x1CAD9, offset: 0x1CAD9, size: 0x8, addend: 0x0, symName: __ZNSt3__116allocator_traitsINS_9allocatorINS_11__tree_nodeINS_12__value_typeINS_12basic_stringIcNS_11char_traitsIcEENS1_IcEEEEiEEPvEEEEE8max_sizeB8ne180100ISC_vEEmRKSC_, symObjAddr: 0xAE84, symBinAddr: 0x10000D468, symSize: 0x24 }
  - { offsetInCU: 0x1CB07, offset: 0x1CB07, size: 0x8, addend: 0x0, symName: __ZNKSt3__19allocatorINS_11__tree_nodeINS_12__value_typeINS_12basic_stringIcNS_11char_traitsIcEENS0_IcEEEEiEEPvEEE8max_sizeB8ne180100Ev, symObjAddr: 0xAEA8, symBinAddr: 0x10000D48C, symSize: 0x14 }
  - { offsetInCU: 0x1CB2D, offset: 0x1CB2D, size: 0x8, addend: 0x0, symName: __ZNSt3__121__map_node_destructorINS_9allocatorINS_11__tree_nodeINS_12__value_typeINS_12basic_stringIcNS_11char_traitsIcEENS1_IcEEEEiEEPvEEEEEC2B8ne180100ERSC_, symObjAddr: 0xAEBC, symBinAddr: 0x10000D4A0, symSize: 0x28 }
  - { offsetInCU: 0x1CB66, offset: 0x1CB66, size: 0x8, addend: 0x0, symName: __ZNSt3__110unique_ptrINS_11__tree_nodeINS_12__value_typeINS_12basic_stringIcNS_11char_traitsIcEENS_9allocatorIcEEEEiEEPvEENS_21__map_node_destructorINS6_ISB_EEEEEC2B8ne180100ILb1EvEEPSB_NS_16__dependent_typeINS_27__unique_ptr_deleter_sfinaeISE_EEXT_EE20__good_rval_ref_typeE, symObjAddr: 0xAEE4, symBinAddr: 0x10000D4C8, symSize: 0x5C }
  - { offsetInCU: 0x1CBB7, offset: 0x1CBB7, size: 0x8, addend: 0x0, symName: __ZNSt3__117__compressed_pairIPNS_11__tree_nodeINS_12__value_typeINS_12basic_stringIcNS_11char_traitsIcEENS_9allocatorIcEEEEiEEPvEENS_21__map_node_destructorINS6_ISB_EEEEEC1B8ne180100IRSC_SF_EEOT_OT0_, symObjAddr: 0xAF40, symBinAddr: 0x10000D524, symSize: 0x3C }
  - { offsetInCU: 0x1CC0F, offset: 0x1CC0F, size: 0x8, addend: 0x0, symName: __ZNSt3__117__compressed_pairIPNS_11__tree_nodeINS_12__value_typeINS_12basic_stringIcNS_11char_traitsIcEENS_9allocatorIcEEEEiEEPvEENS_21__map_node_destructorINS6_ISB_EEEEEC2B8ne180100IRSC_SF_EEOT_OT0_, symObjAddr: 0xAF7C, symBinAddr: 0x10000D560, symSize: 0x48 }
  - { offsetInCU: 0x1CC67, offset: 0x1CC67, size: 0x8, addend: 0x0, symName: __ZNSt3__122__compressed_pair_elemIPNS_11__tree_nodeINS_12__value_typeINS_12basic_stringIcNS_11char_traitsIcEENS_9allocatorIcEEEEiEEPvEELi0ELb0EEC2B8ne180100IRSC_vEEOT_, symObjAddr: 0xAFC4, symBinAddr: 0x10000D5A8, symSize: 0x24 }
  - { offsetInCU: 0x1CCA9, offset: 0x1CCA9, size: 0x8, addend: 0x0, symName: __ZNSt3__122__compressed_pair_elemINS_21__map_node_destructorINS_9allocatorINS_11__tree_nodeINS_12__value_typeINS_12basic_stringIcNS_11char_traitsIcEENS2_IcEEEEiEEPvEEEEEELi1ELb0EEC2B8ne180100ISE_vEEOT_, symObjAddr: 0xAFE8, symBinAddr: 0x10000D5CC, symSize: 0x24 }
  - { offsetInCU: 0x1CCEB, offset: 0x1CCEB, size: 0x8, addend: 0x0, symName: __ZNSt3__19allocatorINS_11__tree_nodeINS_12__value_typeINS_12basic_stringIcNS_11char_traitsIcEENS0_IcEEEEiEEPvEEE9constructB8ne180100IKS7_JRSD_EEEvPT_DpOT0_, symObjAddr: 0xB00C, symBinAddr: 0x10000D5F0, symSize: 0x30 }
  - { offsetInCU: 0x1CD41, offset: 0x1CD41, size: 0x8, addend: 0x0, symName: __ZNKSt3__117__compressed_pairIPNS_11__tree_nodeINS_12__value_typeINS_12basic_stringIcNS_11char_traitsIcEENS_9allocatorIcEEEEiEEPvEENS_21__map_node_destructorINS6_ISB_EEEEE5firstB8ne180100Ev, symObjAddr: 0xB03C, symBinAddr: 0x10000D620, symSize: 0x24 }
  - { offsetInCU: 0x1CD67, offset: 0x1CD67, size: 0x8, addend: 0x0, symName: __ZNKSt3__122__compressed_pair_elemIPNS_11__tree_nodeINS_12__value_typeINS_12basic_stringIcNS_11char_traitsIcEENS_9allocatorIcEEEEiEEPvEELi0ELb0EE5__getB8ne180100Ev, symObjAddr: 0xB060, symBinAddr: 0x10000D644, symSize: 0x14 }
  - { offsetInCU: 0x1CD8D, offset: 0x1CD8D, size: 0x8, addend: 0x0, symName: __ZNSt3__117__compressed_pairIPNS_11__tree_nodeINS_12__value_typeINS_12basic_stringIcNS_11char_traitsIcEENS_9allocatorIcEEEEiEEPvEENS_21__map_node_destructorINS6_ISB_EEEEE6secondB8ne180100Ev, symObjAddr: 0xB074, symBinAddr: 0x10000D658, symSize: 0x28 }
  - { offsetInCU: 0x1CDB3, offset: 0x1CDB3, size: 0x8, addend: 0x0, symName: __ZNSt3__122__compressed_pair_elemINS_21__map_node_destructorINS_9allocatorINS_11__tree_nodeINS_12__value_typeINS_12basic_stringIcNS_11char_traitsIcEENS2_IcEEEEiEEPvEEEEEELi1ELb0EE5__getB8ne180100Ev, symObjAddr: 0xB09C, symBinAddr: 0x10000D680, symSize: 0x14 }
  - { offsetInCU: 0x1CDD9, offset: 0x1CDD9, size: 0x8, addend: 0x0, symName: __ZNSt3__19allocatorINS_11__tree_nodeINS_12__value_typeINS_12basic_stringIcNS_11char_traitsIcEENS0_IcEEEEiEEPvEEE9constructB8ne180100IiJEEEvPT_DpOT0_, symObjAddr: 0xB0B0, symBinAddr: 0x10000D694, symSize: 0x1C }
  - { offsetInCU: 0x1CE1B, offset: 0x1CE1B, size: 0x8, addend: 0x0, symName: __ZNSt3__16__treeINS_12__value_typeINS_12basic_stringIcNS_11char_traitsIcEENS_9allocatorIcEEEEiEENS_19__map_value_compareIS7_S8_NS_4lessIS7_EELb1EEENS5_IS8_EEE4sizeB8ne180100Ev, symObjAddr: 0xB0CC, symBinAddr: 0x10000D6B0, symSize: 0x28 }
  - { offsetInCU: 0x1CE41, offset: 0x1CE41, size: 0x8, addend: 0x0, symName: __ZNSt3__117__compressed_pairImNS_19__map_value_compareINS_12basic_stringIcNS_11char_traitsIcEENS_9allocatorIcEEEENS_12__value_typeIS7_iEENS_4lessIS7_EELb1EEEE5firstB8ne180100Ev, symObjAddr: 0xB0F4, symBinAddr: 0x10000D6D8, symSize: 0x24 }
  - { offsetInCU: 0x1CE67, offset: 0x1CE67, size: 0x8, addend: 0x0, symName: __ZNSt3__117__compressed_pairIPNS_11__tree_nodeINS_12__value_typeINS_12basic_stringIcNS_11char_traitsIcEENS_9allocatorIcEEEEiEEPvEENS_21__map_node_destructorINS6_ISB_EEEEE5firstB8ne180100Ev, symObjAddr: 0xB118, symBinAddr: 0x10000D6FC, symSize: 0x24 }
  - { offsetInCU: 0x1CE8D, offset: 0x1CE8D, size: 0x8, addend: 0x0, symName: __ZNSt3__122__compressed_pair_elemIPNS_11__tree_nodeINS_12__value_typeINS_12basic_stringIcNS_11char_traitsIcEENS_9allocatorIcEEEEiEEPvEELi0ELb0EE5__getB8ne180100Ev, symObjAddr: 0xB13C, symBinAddr: 0x10000D720, symSize: 0x14 }
  - { offsetInCU: 0x1CEB3, offset: 0x1CEB3, size: 0x8, addend: 0x0, symName: __ZNSt3__110unique_ptrINS_11__tree_nodeINS_12__value_typeINS_12basic_stringIcNS_11char_traitsIcEENS_9allocatorIcEEEEiEEPvEENS_21__map_node_destructorINS6_ISB_EEEEED2B8ne180100Ev, symObjAddr: 0xB150, symBinAddr: 0x10000D734, symSize: 0x30 }
  - { offsetInCU: 0x1CEDD, offset: 0x1CEDD, size: 0x8, addend: 0x0, symName: __ZNSt3__110unique_ptrINS_11__tree_nodeINS_12__value_typeINS_12basic_stringIcNS_11char_traitsIcEENS_9allocatorIcEEEEiEEPvEENS_21__map_node_destructorINS6_ISB_EEEEE5resetB8ne180100EPSB_, symObjAddr: 0xB180, symBinAddr: 0x10000D764, symSize: 0x78 }
  - { offsetInCU: 0x1CF21, offset: 0x1CF21, size: 0x8, addend: 0x0, symName: __ZNSt3__121__map_node_destructorINS_9allocatorINS_11__tree_nodeINS_12__value_typeINS_12basic_stringIcNS_11char_traitsIcEENS1_IcEEEEiEEPvEEEEEclB8ne180100EPSB_, symObjAddr: 0xB1F8, symBinAddr: 0x10000D7DC, symSize: 0xE4 }
  - { offsetInCU: 0x1CF56, offset: 0x1CF56, size: 0x8, addend: 0x0, symName: __ZNSt3__116allocator_traitsINS_9allocatorINS_11__tree_nodeINS_12__value_typeINS_12basic_stringIcNS_11char_traitsIcEENS1_IcEEEEiEEPvEEEEE7destroyB8ne180100IivvEEvRSC_PT_, symObjAddr: 0xB2DC, symBinAddr: 0x10000D8C0, symSize: 0x28 }
  - { offsetInCU: 0x1CF91, offset: 0x1CF91, size: 0x8, addend: 0x0, symName: __ZNSt3__116allocator_traitsINS_9allocatorINS_11__tree_nodeINS_12__value_typeINS_12basic_stringIcNS_11char_traitsIcEENS1_IcEEEEiEEPvEEEEE7destroyB8ne180100IKS8_vvEEvRSC_PT_, symObjAddr: 0xB304, symBinAddr: 0x10000D8E8, symSize: 0x28 }
  - { offsetInCU: 0x1CFCC, offset: 0x1CFCC, size: 0x8, addend: 0x0, symName: __ZNSt3__16__treeINS_12__value_typeINS_4pairIiNS_12basic_stringIcNS_11char_traitsIcEENS_9allocatorIcEEEEEEiEENS_19__map_value_compareIS9_SA_NS_4lessIS9_EELb1EEENS6_ISA_EEE12__find_equalIS9_EERPNS_16__tree_node_baseIPvEERPNS_15__tree_end_nodeISL_EERKT_, symObjAddr: 0xB360, symBinAddr: 0x10000D944, symSize: 0x184 }
  - { offsetInCU: 0x1D039, offset: 0x1D039, size: 0x8, addend: 0x0, symName: __ZNSt3__13mapINS_4pairIiNS_12basic_stringIcNS_11char_traitsIcEENS_9allocatorIcEEEEEEiNS_4lessIS8_EENS5_INS1_IKS8_iEEEEE25__construct_node_with_keyERSB_, symObjAddr: 0xB4E4, symBinAddr: 0x10000DAC8, symSize: 0x144 }
  - { offsetInCU: 0x1D08F, offset: 0x1D08F, size: 0x8, addend: 0x0, symName: __ZNSt3__16__treeINS_12__value_typeINS_4pairIiNS_12basic_stringIcNS_11char_traitsIcEENS_9allocatorIcEEEEEEiEENS_19__map_value_compareIS9_SA_NS_4lessIS9_EELb1EEENS6_ISA_EEE16__insert_node_atEPNS_15__tree_end_nodeIPNS_16__tree_node_baseIPvEEEERSL_SL_, symObjAddr: 0xB628, symBinAddr: 0x10000DC0C, symSize: 0xCC }
  - { offsetInCU: 0x1D0E4, offset: 0x1D0E4, size: 0x8, addend: 0x0, symName: __ZNKSt3__110unique_ptrINS_11__tree_nodeINS_12__value_typeINS_4pairIiNS_12basic_stringIcNS_11char_traitsIcEENS_9allocatorIcEEEEEEiEEPvEENS_21__map_node_destructorINS7_ISD_EEEEE3getB8ne180100Ev, symObjAddr: 0xB6F4, symBinAddr: 0x10000DCD8, symSize: 0x28 }
  - { offsetInCU: 0x1D10A, offset: 0x1D10A, size: 0x8, addend: 0x0, symName: __ZNSt3__110unique_ptrINS_11__tree_nodeINS_12__value_typeINS_4pairIiNS_12basic_stringIcNS_11char_traitsIcEENS_9allocatorIcEEEEEEiEEPvEENS_21__map_node_destructorINS7_ISD_EEEEE7releaseB8ne180100Ev, symObjAddr: 0xB71C, symBinAddr: 0x10000DD00, symSize: 0x44 }
  - { offsetInCU: 0x1D13F, offset: 0x1D13F, size: 0x8, addend: 0x0, symName: __ZNSt3__110unique_ptrINS_11__tree_nodeINS_12__value_typeINS_4pairIiNS_12basic_stringIcNS_11char_traitsIcEENS_9allocatorIcEEEEEEiEEPvEENS_21__map_node_destructorINS7_ISD_EEEEED1B8ne180100Ev, symObjAddr: 0xB760, symBinAddr: 0x10000DD44, symSize: 0x2C }
  - { offsetInCU: 0x1D169, offset: 0x1D169, size: 0x8, addend: 0x0, symName: __ZNKSt3__16__treeINS_12__value_typeINS_4pairIiNS_12basic_stringIcNS_11char_traitsIcEENS_9allocatorIcEEEEEEiEENS_19__map_value_compareIS9_SA_NS_4lessIS9_EELb1EEENS6_ISA_EEE10__root_ptrB8ne180100Ev, symObjAddr: 0xB78C, symBinAddr: 0x10000DD70, symSize: 0x24 }
  - { offsetInCU: 0x1D18F, offset: 0x1D18F, size: 0x8, addend: 0x0, symName: __ZNSt3__16__treeINS_12__value_typeINS_4pairIiNS_12basic_stringIcNS_11char_traitsIcEENS_9allocatorIcEEEEEEiEENS_19__map_value_compareIS9_SA_NS_4lessIS9_EELb1EEENS6_ISA_EEE10value_compB8ne180100Ev, symObjAddr: 0xB7B0, symBinAddr: 0x10000DD94, symSize: 0x28 }
  - { offsetInCU: 0x1D1B5, offset: 0x1D1B5, size: 0x8, addend: 0x0, symName: __ZNKSt3__119__map_value_compareINS_4pairIiNS_12basic_stringIcNS_11char_traitsIcEENS_9allocatorIcEEEEEENS_12__value_typeIS8_iEENS_4lessIS8_EELb1EEclB8ne180100ERKS8_RKSA_, symObjAddr: 0xB7D8, symBinAddr: 0x10000DDBC, symSize: 0x50 }
  - { offsetInCU: 0x1D1F9, offset: 0x1D1F9, size: 0x8, addend: 0x0, symName: __ZNKSt3__119__map_value_compareINS_4pairIiNS_12basic_stringIcNS_11char_traitsIcEENS_9allocatorIcEEEEEENS_12__value_typeIS8_iEENS_4lessIS8_EELb1EEclB8ne180100ERKSA_RKS8_, symObjAddr: 0xB828, symBinAddr: 0x10000DE0C, symSize: 0x48 }
  - { offsetInCU: 0x1D23D, offset: 0x1D23D, size: 0x8, addend: 0x0, symName: __ZNSt3__117__compressed_pairImNS_19__map_value_compareINS_4pairIiNS_12basic_stringIcNS_11char_traitsIcEENS_9allocatorIcEEEEEENS_12__value_typeIS9_iEENS_4lessIS9_EELb1EEEE6secondB8ne180100Ev, symObjAddr: 0xB870, symBinAddr: 0x10000DE54, symSize: 0x24 }
  - { offsetInCU: 0x1D263, offset: 0x1D263, size: 0x8, addend: 0x0, symName: __ZNSt3__122__compressed_pair_elemINS_19__map_value_compareINS_4pairIiNS_12basic_stringIcNS_11char_traitsIcEENS_9allocatorIcEEEEEENS_12__value_typeIS9_iEENS_4lessIS9_EELb1EEELi1ELb1EE5__getB8ne180100Ev, symObjAddr: 0xB894, symBinAddr: 0x10000DE78, symSize: 0x14 }
  - { offsetInCU: 0x1D289, offset: 0x1D289, size: 0x8, addend: 0x0, symName: __ZNKSt3__112__value_typeINS_4pairIiNS_12basic_stringIcNS_11char_traitsIcEENS_9allocatorIcEEEEEEiE11__get_valueB8ne180100Ev, symObjAddr: 0xB8A8, symBinAddr: 0x10000DE8C, symSize: 0x14 }
  - { offsetInCU: 0x1D2AF, offset: 0x1D2AF, size: 0x8, addend: 0x0, symName: __ZNSt3__116allocator_traitsINS_9allocatorINS_11__tree_nodeINS_12__value_typeINS_4pairIiNS_12basic_stringIcNS_11char_traitsIcEENS1_IcEEEEEEiEEPvEEEEE8allocateB8ne180100ERSE_m, symObjAddr: 0xB8BC, symBinAddr: 0x10000DEA0, symSize: 0x2C }
  - { offsetInCU: 0x1D2E2, offset: 0x1D2E2, size: 0x8, addend: 0x0, symName: __ZNSt3__121__map_node_destructorINS_9allocatorINS_11__tree_nodeINS_12__value_typeINS_4pairIiNS_12basic_stringIcNS_11char_traitsIcEENS1_IcEEEEEEiEEPvEEEEEC1B8ne180100ERSE_, symObjAddr: 0xB8E8, symBinAddr: 0x10000DECC, symSize: 0x34 }
  - { offsetInCU: 0x1D320, offset: 0x1D320, size: 0x8, addend: 0x0, symName: __ZNSt3__110unique_ptrINS_11__tree_nodeINS_12__value_typeINS_4pairIiNS_12basic_stringIcNS_11char_traitsIcEENS_9allocatorIcEEEEEEiEEPvEENS_21__map_node_destructorINS7_ISD_EEEEEC1B8ne180100ILb1EvEEPSD_NS_16__dependent_typeINS_27__unique_ptr_deleter_sfinaeISG_EEXT_EE20__good_rval_ref_typeE, symObjAddr: 0xB91C, symBinAddr: 0x10000DF00, symSize: 0x3C }
  - { offsetInCU: 0x1D371, offset: 0x1D371, size: 0x8, addend: 0x0, symName: __ZNSt3__116allocator_traitsINS_9allocatorINS_11__tree_nodeINS_12__value_typeINS_4pairIiNS_12basic_stringIcNS_11char_traitsIcEENS1_IcEEEEEEiEEPvEEEEE9constructB8ne180100IKSA_JRSH_EvEEvRSE_PT_DpOT0_, symObjAddr: 0xB958, symBinAddr: 0x10000DF3C, symSize: 0x34 }
  - { offsetInCU: 0x1D3C8, offset: 0x1D3C8, size: 0x8, addend: 0x0, symName: __ZNKSt3__110unique_ptrINS_11__tree_nodeINS_12__value_typeINS_4pairIiNS_12basic_stringIcNS_11char_traitsIcEENS_9allocatorIcEEEEEEiEEPvEENS_21__map_node_destructorINS7_ISD_EEEEEptB8ne180100Ev, symObjAddr: 0xB98C, symBinAddr: 0x10000DF70, symSize: 0x28 }
  - { offsetInCU: 0x1D3EE, offset: 0x1D3EE, size: 0x8, addend: 0x0, symName: __ZNSt3__110unique_ptrINS_11__tree_nodeINS_12__value_typeINS_4pairIiNS_12basic_stringIcNS_11char_traitsIcEENS_9allocatorIcEEEEEEiEEPvEENS_21__map_node_destructorINS7_ISD_EEEEE11get_deleterB8ne180100Ev, symObjAddr: 0xB9B4, symBinAddr: 0x10000DF98, symSize: 0x24 }
  - { offsetInCU: 0x1D414, offset: 0x1D414, size: 0x8, addend: 0x0, symName: __ZNSt3__116allocator_traitsINS_9allocatorINS_11__tree_nodeINS_12__value_typeINS_4pairIiNS_12basic_stringIcNS_11char_traitsIcEENS1_IcEEEEEEiEEPvEEEEE9constructB8ne180100IiJEvEEvRSE_PT_DpOT0_, symObjAddr: 0xB9D8, symBinAddr: 0x10000DFBC, symSize: 0x2C }
  - { offsetInCU: 0x1D456, offset: 0x1D456, size: 0x8, addend: 0x0, symName: __ZNSt3__19allocatorINS_11__tree_nodeINS_12__value_typeINS_4pairIiNS_12basic_stringIcNS_11char_traitsIcEENS0_IcEEEEEEiEEPvEEE8allocateB8ne180100Em, symObjAddr: 0xBA04, symBinAddr: 0x10000DFE8, symSize: 0x8C }
  - { offsetInCU: 0x1D494, offset: 0x1D494, size: 0x8, addend: 0x0, symName: __ZNSt3__116allocator_traitsINS_9allocatorINS_11__tree_nodeINS_12__value_typeINS_4pairIiNS_12basic_stringIcNS_11char_traitsIcEENS1_IcEEEEEEiEEPvEEEEE8max_sizeB8ne180100ISE_vEEmRKSE_, symObjAddr: 0xBA90, symBinAddr: 0x10000E074, symSize: 0x24 }
  - { offsetInCU: 0x1D4C2, offset: 0x1D4C2, size: 0x8, addend: 0x0, symName: __ZNKSt3__19allocatorINS_11__tree_nodeINS_12__value_typeINS_4pairIiNS_12basic_stringIcNS_11char_traitsIcEENS0_IcEEEEEEiEEPvEEE8max_sizeB8ne180100Ev, symObjAddr: 0xBAB4, symBinAddr: 0x10000E098, symSize: 0x20 }
  - { offsetInCU: 0x1D4E8, offset: 0x1D4E8, size: 0x8, addend: 0x0, symName: __ZNSt3__121__map_node_destructorINS_9allocatorINS_11__tree_nodeINS_12__value_typeINS_4pairIiNS_12basic_stringIcNS_11char_traitsIcEENS1_IcEEEEEEiEEPvEEEEEC2B8ne180100ERSE_, symObjAddr: 0xBAD4, symBinAddr: 0x10000E0B8, symSize: 0x28 }
  - { offsetInCU: 0x1D521, offset: 0x1D521, size: 0x8, addend: 0x0, symName: __ZNSt3__110unique_ptrINS_11__tree_nodeINS_12__value_typeINS_4pairIiNS_12basic_stringIcNS_11char_traitsIcEENS_9allocatorIcEEEEEEiEEPvEENS_21__map_node_destructorINS7_ISD_EEEEEC2B8ne180100ILb1EvEEPSD_NS_16__dependent_typeINS_27__unique_ptr_deleter_sfinaeISG_EEXT_EE20__good_rval_ref_typeE, symObjAddr: 0xBAFC, symBinAddr: 0x10000E0E0, symSize: 0x5C }
  - { offsetInCU: 0x1D572, offset: 0x1D572, size: 0x8, addend: 0x0, symName: __ZNSt3__117__compressed_pairIPNS_11__tree_nodeINS_12__value_typeINS_4pairIiNS_12basic_stringIcNS_11char_traitsIcEENS_9allocatorIcEEEEEEiEEPvEENS_21__map_node_destructorINS7_ISD_EEEEEC1B8ne180100IRSE_SH_EEOT_OT0_, symObjAddr: 0xBB58, symBinAddr: 0x10000E13C, symSize: 0x3C }
  - { offsetInCU: 0x1D5CA, offset: 0x1D5CA, size: 0x8, addend: 0x0, symName: __ZNSt3__117__compressed_pairIPNS_11__tree_nodeINS_12__value_typeINS_4pairIiNS_12basic_stringIcNS_11char_traitsIcEENS_9allocatorIcEEEEEEiEEPvEENS_21__map_node_destructorINS7_ISD_EEEEEC2B8ne180100IRSE_SH_EEOT_OT0_, symObjAddr: 0xBB94, symBinAddr: 0x10000E178, symSize: 0x48 }
  - { offsetInCU: 0x1D622, offset: 0x1D622, size: 0x8, addend: 0x0, symName: __ZNSt3__122__compressed_pair_elemIPNS_11__tree_nodeINS_12__value_typeINS_4pairIiNS_12basic_stringIcNS_11char_traitsIcEENS_9allocatorIcEEEEEEiEEPvEELi0ELb0EEC2B8ne180100IRSE_vEEOT_, symObjAddr: 0xBBDC, symBinAddr: 0x10000E1C0, symSize: 0x24 }
  - { offsetInCU: 0x1D664, offset: 0x1D664, size: 0x8, addend: 0x0, symName: __ZNSt3__122__compressed_pair_elemINS_21__map_node_destructorINS_9allocatorINS_11__tree_nodeINS_12__value_typeINS_4pairIiNS_12basic_stringIcNS_11char_traitsIcEENS2_IcEEEEEEiEEPvEEEEEELi1ELb0EEC2B8ne180100ISG_vEEOT_, symObjAddr: 0xBC00, symBinAddr: 0x10000E1E4, symSize: 0x24 }
  - { offsetInCU: 0x1D6A6, offset: 0x1D6A6, size: 0x8, addend: 0x0, symName: __ZNSt3__19allocatorINS_11__tree_nodeINS_12__value_typeINS_4pairIiNS_12basic_stringIcNS_11char_traitsIcEENS0_IcEEEEEEiEEPvEEE9constructB8ne180100IKS9_JRSF_EEEvPT_DpOT0_, symObjAddr: 0xBC24, symBinAddr: 0x10000E208, symSize: 0x30 }
  - { offsetInCU: 0x1D6FC, offset: 0x1D6FC, size: 0x8, addend: 0x0, symName: __ZNKSt3__117__compressed_pairIPNS_11__tree_nodeINS_12__value_typeINS_4pairIiNS_12basic_stringIcNS_11char_traitsIcEENS_9allocatorIcEEEEEEiEEPvEENS_21__map_node_destructorINS7_ISD_EEEEE5firstB8ne180100Ev, symObjAddr: 0xBC54, symBinAddr: 0x10000E238, symSize: 0x24 }
  - { offsetInCU: 0x1D722, offset: 0x1D722, size: 0x8, addend: 0x0, symName: __ZNKSt3__122__compressed_pair_elemIPNS_11__tree_nodeINS_12__value_typeINS_4pairIiNS_12basic_stringIcNS_11char_traitsIcEENS_9allocatorIcEEEEEEiEEPvEELi0ELb0EE5__getB8ne180100Ev, symObjAddr: 0xBC78, symBinAddr: 0x10000E25C, symSize: 0x14 }
  - { offsetInCU: 0x1D748, offset: 0x1D748, size: 0x8, addend: 0x0, symName: __ZNSt3__117__compressed_pairIPNS_11__tree_nodeINS_12__value_typeINS_4pairIiNS_12basic_stringIcNS_11char_traitsIcEENS_9allocatorIcEEEEEEiEEPvEENS_21__map_node_destructorINS7_ISD_EEEEE6secondB8ne180100Ev, symObjAddr: 0xBC8C, symBinAddr: 0x10000E270, symSize: 0x28 }
  - { offsetInCU: 0x1D76E, offset: 0x1D76E, size: 0x8, addend: 0x0, symName: __ZNSt3__122__compressed_pair_elemINS_21__map_node_destructorINS_9allocatorINS_11__tree_nodeINS_12__value_typeINS_4pairIiNS_12basic_stringIcNS_11char_traitsIcEENS2_IcEEEEEEiEEPvEEEEEELi1ELb0EE5__getB8ne180100Ev, symObjAddr: 0xBCB4, symBinAddr: 0x10000E298, symSize: 0x14 }
  - { offsetInCU: 0x1D794, offset: 0x1D794, size: 0x8, addend: 0x0, symName: __ZNSt3__19allocatorINS_11__tree_nodeINS_12__value_typeINS_4pairIiNS_12basic_stringIcNS_11char_traitsIcEENS0_IcEEEEEEiEEPvEEE9constructB8ne180100IiJEEEvPT_DpOT0_, symObjAddr: 0xBCC8, symBinAddr: 0x10000E2AC, symSize: 0x1C }
  - { offsetInCU: 0x1D7D6, offset: 0x1D7D6, size: 0x8, addend: 0x0, symName: __ZNSt3__16__treeINS_12__value_typeINS_4pairIiNS_12basic_stringIcNS_11char_traitsIcEENS_9allocatorIcEEEEEEiEENS_19__map_value_compareIS9_SA_NS_4lessIS9_EELb1EEENS6_ISA_EEE4sizeB8ne180100Ev, symObjAddr: 0xBCE4, symBinAddr: 0x10000E2C8, symSize: 0x28 }
  - { offsetInCU: 0x1D7FC, offset: 0x1D7FC, size: 0x8, addend: 0x0, symName: __ZNSt3__117__compressed_pairImNS_19__map_value_compareINS_4pairIiNS_12basic_stringIcNS_11char_traitsIcEENS_9allocatorIcEEEEEENS_12__value_typeIS9_iEENS_4lessIS9_EELb1EEEE5firstB8ne180100Ev, symObjAddr: 0xBD0C, symBinAddr: 0x10000E2F0, symSize: 0x24 }
  - { offsetInCU: 0x1D822, offset: 0x1D822, size: 0x8, addend: 0x0, symName: __ZNSt3__117__compressed_pairIPNS_11__tree_nodeINS_12__value_typeINS_4pairIiNS_12basic_stringIcNS_11char_traitsIcEENS_9allocatorIcEEEEEEiEEPvEENS_21__map_node_destructorINS7_ISD_EEEEE5firstB8ne180100Ev, symObjAddr: 0xBD30, symBinAddr: 0x10000E314, symSize: 0x24 }
  - { offsetInCU: 0x1D848, offset: 0x1D848, size: 0x8, addend: 0x0, symName: __ZNSt3__122__compressed_pair_elemIPNS_11__tree_nodeINS_12__value_typeINS_4pairIiNS_12basic_stringIcNS_11char_traitsIcEENS_9allocatorIcEEEEEEiEEPvEELi0ELb0EE5__getB8ne180100Ev, symObjAddr: 0xBD54, symBinAddr: 0x10000E338, symSize: 0x14 }
  - { offsetInCU: 0x1D86E, offset: 0x1D86E, size: 0x8, addend: 0x0, symName: __ZNSt3__110unique_ptrINS_11__tree_nodeINS_12__value_typeINS_4pairIiNS_12basic_stringIcNS_11char_traitsIcEENS_9allocatorIcEEEEEEiEEPvEENS_21__map_node_destructorINS7_ISD_EEEEED2B8ne180100Ev, symObjAddr: 0xBD68, symBinAddr: 0x10000E34C, symSize: 0x30 }
  - { offsetInCU: 0x1D898, offset: 0x1D898, size: 0x8, addend: 0x0, symName: __ZNSt3__110unique_ptrINS_11__tree_nodeINS_12__value_typeINS_4pairIiNS_12basic_stringIcNS_11char_traitsIcEENS_9allocatorIcEEEEEEiEEPvEENS_21__map_node_destructorINS7_ISD_EEEEE5resetB8ne180100EPSD_, symObjAddr: 0xBD98, symBinAddr: 0x10000E37C, symSize: 0x78 }
  - { offsetInCU: 0x1D8DC, offset: 0x1D8DC, size: 0x8, addend: 0x0, symName: __ZNSt3__121__map_node_destructorINS_9allocatorINS_11__tree_nodeINS_12__value_typeINS_4pairIiNS_12basic_stringIcNS_11char_traitsIcEENS1_IcEEEEEEiEEPvEEEEEclB8ne180100EPSD_, symObjAddr: 0xBE10, symBinAddr: 0x10000E3F4, symSize: 0xE4 }
  - { offsetInCU: 0x1D911, offset: 0x1D911, size: 0x8, addend: 0x0, symName: __ZNSt3__116allocator_traitsINS_9allocatorINS_11__tree_nodeINS_12__value_typeINS_4pairIiNS_12basic_stringIcNS_11char_traitsIcEENS1_IcEEEEEEiEEPvEEEEE7destroyB8ne180100IivvEEvRSE_PT_, symObjAddr: 0xBEF4, symBinAddr: 0x10000E4D8, symSize: 0x28 }
  - { offsetInCU: 0x1D94C, offset: 0x1D94C, size: 0x8, addend: 0x0, symName: __ZNSt3__116allocator_traitsINS_9allocatorINS_11__tree_nodeINS_12__value_typeINS_4pairIiNS_12basic_stringIcNS_11char_traitsIcEENS1_IcEEEEEEiEEPvEEEEE7destroyB8ne180100IKSA_vvEEvRSE_PT_, symObjAddr: 0xBF1C, symBinAddr: 0x10000E500, symSize: 0x28 }
  - { offsetInCU: 0x1D987, offset: 0x1D987, size: 0x8, addend: 0x0, symName: __ZNSt3__113basic_ostreamIcNS_11char_traitsIcEEEC2B8ne180100EPNS_15basic_streambufIcS2_EE, symObjAddr: 0xBF44, symBinAddr: 0x10000E528, symSize: 0x60 }
  - { offsetInCU: 0x1D9CC, offset: 0x1D9CC, size: 0x8, addend: 0x0, symName: __ZNSt3__16__treeINS_12__value_typeINS_12basic_stringIcNS_11char_traitsIcEENS_9allocatorIcEEEEiEENS_19__map_value_compareIS7_S8_NS_4lessIS7_EELb1EEENS5_IS8_EEE5beginB8ne180100Ev, symObjAddr: 0xBFA4, symBinAddr: 0x10000E588, symSize: 0x34 }
  - { offsetInCU: 0x1D9F2, offset: 0x1D9F2, size: 0x8, addend: 0x0, symName: __ZNSt3__114__map_iteratorINS_15__tree_iteratorINS_12__value_typeINS_12basic_stringIcNS_11char_traitsIcEENS_9allocatorIcEEEEiEEPNS_11__tree_nodeIS9_PvEElEEEC1B8ne180100ESE_, symObjAddr: 0xBFD8, symBinAddr: 0x10000E5BC, symSize: 0x34 }
  - { offsetInCU: 0x1DA2B, offset: 0x1DA2B, size: 0x8, addend: 0x0, symName: __ZNSt3__115__tree_iteratorINS_12__value_typeINS_12basic_stringIcNS_11char_traitsIcEENS_9allocatorIcEEEEiEEPNS_11__tree_nodeIS8_PvEElEC1B8ne180100EPNS_15__tree_end_nodeIPNS_16__tree_node_baseISA_EEEE, symObjAddr: 0xC00C, symBinAddr: 0x10000E5F0, symSize: 0x34 }
  - { offsetInCU: 0x1DA64, offset: 0x1DA64, size: 0x8, addend: 0x0, symName: __ZNSt3__115__tree_iteratorINS_12__value_typeINS_12basic_stringIcNS_11char_traitsIcEENS_9allocatorIcEEEEiEEPNS_11__tree_nodeIS8_PvEElEC2B8ne180100EPNS_15__tree_end_nodeIPNS_16__tree_node_baseISA_EEEE, symObjAddr: 0xC040, symBinAddr: 0x10000E624, symSize: 0x20 }
  - { offsetInCU: 0x1DA9D, offset: 0x1DA9D, size: 0x8, addend: 0x0, symName: __ZNSt3__114__map_iteratorINS_15__tree_iteratorINS_12__value_typeINS_12basic_stringIcNS_11char_traitsIcEENS_9allocatorIcEEEEiEEPNS_11__tree_nodeIS9_PvEElEEEC2B8ne180100ESE_, symObjAddr: 0xC060, symBinAddr: 0x10000E644, symSize: 0x20 }
  - { offsetInCU: 0x1DAD6, offset: 0x1DAD6, size: 0x8, addend: 0x0, symName: __ZNSt3__16__treeINS_12__value_typeINS_12basic_stringIcNS_11char_traitsIcEENS_9allocatorIcEEEEiEENS_19__map_value_compareIS7_S8_NS_4lessIS7_EELb1EEENS5_IS8_EEE3endB8ne180100Ev, symObjAddr: 0xC080, symBinAddr: 0x10000E664, symSize: 0x34 }
  - { offsetInCU: 0x1DAFC, offset: 0x1DAFC, size: 0x8, addend: 0x0, symName: __ZNSt3__115__tree_iteratorINS_12__value_typeINS_12basic_stringIcNS_11char_traitsIcEENS_9allocatorIcEEEEiEEPNS_11__tree_nodeIS8_PvEElEppB8ne180100Ev, symObjAddr: 0xC118, symBinAddr: 0x10000E6FC, symSize: 0x38 }
  - { offsetInCU: 0x1DB22, offset: 0x1DB22, size: 0x8, addend: 0x0, symName: __ZNKSt3__115__tree_iteratorINS_12__value_typeINS_12basic_stringIcNS_11char_traitsIcEENS_9allocatorIcEEEEiEEPNS_11__tree_nodeIS8_PvEElEptB8ne180100Ev, symObjAddr: 0xC210, symBinAddr: 0x10000E7F4, symSize: 0x2C }
  - { offsetInCU: 0x1DB48, offset: 0x1DB48, size: 0x8, addend: 0x0, symName: __ZNSt3__114pointer_traitsIPNS_12__value_typeINS_12basic_stringIcNS_11char_traitsIcEENS_9allocatorIcEEEEiEEE10pointer_toB8ne180100ERS8_, symObjAddr: 0xC23C, symBinAddr: 0x10000E820, symSize: 0x14 }
  - { offsetInCU: 0x1DB6B, offset: 0x1DB6B, size: 0x8, addend: 0x0, symName: __ZNKSt3__115__tree_iteratorINS_12__value_typeINS_12basic_stringIcNS_11char_traitsIcEENS_9allocatorIcEEEEiEEPNS_11__tree_nodeIS8_PvEElE8__get_npB8ne180100Ev, symObjAddr: 0xC250, symBinAddr: 0x10000E834, symSize: 0x18 }
  - { offsetInCU: 0x1DB91, offset: 0x1DB91, size: 0x8, addend: 0x0, symName: __ZNSt3__16__treeINS_12__value_typeINS_4pairIiNS_12basic_stringIcNS_11char_traitsIcEENS_9allocatorIcEEEEEEiEENS_19__map_value_compareIS9_SA_NS_4lessIS9_EELb1EEENS6_ISA_EEE5beginB8ne180100Ev, symObjAddr: 0xC268, symBinAddr: 0x10000E84C, symSize: 0x34 }
  - { offsetInCU: 0x1DBB7, offset: 0x1DBB7, size: 0x8, addend: 0x0, symName: __ZNSt3__114__map_iteratorINS_15__tree_iteratorINS_12__value_typeINS_4pairIiNS_12basic_stringIcNS_11char_traitsIcEENS_9allocatorIcEEEEEEiEEPNS_11__tree_nodeISB_PvEElEEEC1B8ne180100ESG_, symObjAddr: 0xC29C, symBinAddr: 0x10000E880, symSize: 0x34 }
  - { offsetInCU: 0x1DBF0, offset: 0x1DBF0, size: 0x8, addend: 0x0, symName: __ZNSt3__115__tree_iteratorINS_12__value_typeINS_4pairIiNS_12basic_stringIcNS_11char_traitsIcEENS_9allocatorIcEEEEEEiEEPNS_11__tree_nodeISA_PvEElEC1B8ne180100EPNS_15__tree_end_nodeIPNS_16__tree_node_baseISC_EEEE, symObjAddr: 0xC2D0, symBinAddr: 0x10000E8B4, symSize: 0x34 }
  - { offsetInCU: 0x1DC29, offset: 0x1DC29, size: 0x8, addend: 0x0, symName: __ZNSt3__115__tree_iteratorINS_12__value_typeINS_4pairIiNS_12basic_stringIcNS_11char_traitsIcEENS_9allocatorIcEEEEEEiEEPNS_11__tree_nodeISA_PvEElEC2B8ne180100EPNS_15__tree_end_nodeIPNS_16__tree_node_baseISC_EEEE, symObjAddr: 0xC304, symBinAddr: 0x10000E8E8, symSize: 0x20 }
  - { offsetInCU: 0x1DC62, offset: 0x1DC62, size: 0x8, addend: 0x0, symName: __ZNSt3__114__map_iteratorINS_15__tree_iteratorINS_12__value_typeINS_4pairIiNS_12basic_stringIcNS_11char_traitsIcEENS_9allocatorIcEEEEEEiEEPNS_11__tree_nodeISB_PvEElEEEC2B8ne180100ESG_, symObjAddr: 0xC324, symBinAddr: 0x10000E908, symSize: 0x20 }
  - { offsetInCU: 0x1DC9B, offset: 0x1DC9B, size: 0x8, addend: 0x0, symName: __ZNSt3__16__treeINS_12__value_typeINS_4pairIiNS_12basic_stringIcNS_11char_traitsIcEENS_9allocatorIcEEEEEEiEENS_19__map_value_compareIS9_SA_NS_4lessIS9_EELb1EEENS6_ISA_EEE3endB8ne180100Ev, symObjAddr: 0xC344, symBinAddr: 0x10000E928, symSize: 0x34 }
  - { offsetInCU: 0x1DCC1, offset: 0x1DCC1, size: 0x8, addend: 0x0, symName: __ZNSt3__115__tree_iteratorINS_12__value_typeINS_4pairIiNS_12basic_stringIcNS_11char_traitsIcEENS_9allocatorIcEEEEEEiEEPNS_11__tree_nodeISA_PvEElEppB8ne180100Ev, symObjAddr: 0xC3DC, symBinAddr: 0x10000E9C0, symSize: 0x38 }
  - { offsetInCU: 0x1DCE7, offset: 0x1DCE7, size: 0x8, addend: 0x0, symName: __ZNKSt3__115__tree_iteratorINS_12__value_typeINS_4pairIiNS_12basic_stringIcNS_11char_traitsIcEENS_9allocatorIcEEEEEEiEEPNS_11__tree_nodeISA_PvEElEptB8ne180100Ev, symObjAddr: 0xC414, symBinAddr: 0x10000E9F8, symSize: 0x2C }
  - { offsetInCU: 0x1DD0D, offset: 0x1DD0D, size: 0x8, addend: 0x0, symName: __ZNSt3__114pointer_traitsIPNS_12__value_typeINS_4pairIiNS_12basic_stringIcNS_11char_traitsIcEENS_9allocatorIcEEEEEEiEEE10pointer_toB8ne180100ERSA_, symObjAddr: 0xC440, symBinAddr: 0x10000EA24, symSize: 0x14 }
  - { offsetInCU: 0x1DD30, offset: 0x1DD30, size: 0x8, addend: 0x0, symName: __ZNKSt3__115__tree_iteratorINS_12__value_typeINS_4pairIiNS_12basic_stringIcNS_11char_traitsIcEENS_9allocatorIcEEEEEEiEEPNS_11__tree_nodeISA_PvEElE8__get_npB8ne180100Ev, symObjAddr: 0xC454, symBinAddr: 0x10000EA38, symSize: 0x18 }
...
